	.cpu cortex-a8
	.fpu softvfp
	.eabi_attribute 20, 1
	.eabi_attribute 21, 1
	.eabi_attribute 23, 3
	.eabi_attribute 24, 1
	.eabi_attribute 25, 1
	.eabi_attribute 26, 1
	.eabi_attribute 30, 6
	.eabi_attribute 34, 1
	.eabi_attribute 18, 4
	.file	"queue.c"
	.text
.Ltext0:
	.cfi_sections	.debug_frame
	.align	2
	.global	xQueueCreate
	.type	xQueueCreate, %function
xQueueCreate:
.LFB0:
	.file 1 "../../Source/queue.c"
	.loc 1 254 0
	.cfi_startproc
	@ args = 0, pretend = 0, frame = 24
	@ frame_needed = 0, uses_anonymous_args = 0
	str	lr, [sp, #-4]!
.LCFI0:
	.cfi_def_cfa_offset 4
	.cfi_offset 14, -4
	sub	sp, sp, #28
.LCFI1:
	.cfi_def_cfa_offset 32
	str	r0, [sp, #4]
	str	r1, [sp, #0]
	.loc 1 257 0
	mov	r3, #0
	str	r3, [sp, #20]
	.loc 1 260 0
	ldr	r3, [sp, #4]
	cmp	r3, #0
	beq	.L2
	.loc 1 262 0
	mov	r0, #76
	bl	pvPortMalloc
	str	r0, [sp, #16]
	.loc 1 263 0
	ldr	r3, [sp, #16]
	cmp	r3, #0
	beq	.L2
	.loc 1 267 0
	ldr	r3, [sp, #4]
	ldr	r2, [sp, #0]
	mul	r3, r2, r3
	add	r3, r3, #1
	str	r3, [sp, #12]
	.loc 1 269 0
	ldr	r0, [sp, #12]
	bl	pvPortMalloc
	mov	r2, r0
	ldr	r3, [sp, #16]
	str	r2, [r3, #0]
	.loc 1 270 0
	ldr	r3, [sp, #16]
	ldr	r3, [r3, #0]
	cmp	r3, #0
	beq	.L3
	.loc 1 274 0
	ldr	r3, [sp, #16]
	ldr	r2, [r3, #0]
	ldr	r3, [sp, #4]
	ldr	r1, [sp, #0]
	mul	r3, r1, r3
	add	r2, r2, r3
	ldr	r3, [sp, #16]
	str	r2, [r3, #4]
	.loc 1 275 0
	ldr	r3, [sp, #16]
	mov	r2, #0
	str	r2, [r3, #56]
	.loc 1 276 0
	ldr	r3, [sp, #16]
	ldr	r2, [r3, #0]
	ldr	r3, [sp, #16]
	str	r2, [r3, #8]
	.loc 1 277 0
	ldr	r3, [sp, #16]
	ldr	r2, [r3, #0]
	ldr	r3, [sp, #4]
	sub	r3, r3, #1
	ldr	r1, [sp, #0]
	mul	r3, r1, r3
	add	r2, r2, r3
	ldr	r3, [sp, #16]
	str	r2, [r3, #12]
	.loc 1 278 0
	ldr	r3, [sp, #16]
	ldr	r2, [sp, #4]
	str	r2, [r3, #60]
	.loc 1 279 0
	ldr	r3, [sp, #16]
	ldr	r2, [sp, #0]
	str	r2, [r3, #64]
	.loc 1 280 0
	ldr	r3, [sp, #16]
	mvn	r2, #0
	str	r2, [r3, #68]
	.loc 1 281 0
	ldr	r3, [sp, #16]
	mvn	r2, #0
	str	r2, [r3, #72]
	.loc 1 284 0
	ldr	r3, [sp, #16]
	add	r3, r3, #16
	mov	r0, r3
	bl	vListInitialise
	.loc 1 285 0
	ldr	r3, [sp, #16]
	add	r3, r3, #36
	mov	r0, r3
	bl	vListInitialise
	.loc 1 288 0
	ldr	r3, [sp, #16]
	str	r3, [sp, #20]
	b	.L2
.L3:
	.loc 1 293 0
	ldr	r0, [sp, #16]
	bl	vPortFree
.L2:
	.loc 1 300 0
	ldr	r3, [sp, #20]
	.loc 1 301 0
	mov	r0, r3
	add	sp, sp, #28
	ldmfd	sp!, {pc}
	.cfi_endproc
.LFE0:
	.size	xQueueCreate, .-xQueueCreate
	.align	2
	.global	xQueueGenericSend
	.type	xQueueGenericSend, %function
xQueueGenericSend:
.LFB1:
	.loc 1 470 0
	.cfi_startproc
	@ args = 0, pretend = 0, frame = 32
	@ frame_needed = 0, uses_anonymous_args = 0
	str	lr, [sp, #-4]!
.LCFI2:
	.cfi_def_cfa_offset 4
	.cfi_offset 14, -4
	sub	sp, sp, #36
.LCFI3:
	.cfi_def_cfa_offset 40
	str	r0, [sp, #12]
	str	r1, [sp, #8]
	str	r2, [sp, #4]
	str	r3, [sp, #0]
	.loc 1 471 0
	mov	r3, #0
	str	r3, [sp, #28]
	b	.L16
.L18:
	.loc 1 584 0
	mov	r0, r0	@ nop
.L16:
	.loc 1 482 0
	bl	vPortEnterCritical
	.loc 1 486 0
	ldr	r3, [sp, #12]
	ldr	r2, [r3, #56]
	ldr	r3, [sp, #12]
	ldr	r3, [r3, #60]
	cmp	r2, r3
	bcs	.L6
	.loc 1 489 0
	ldr	r0, [sp, #12]
	ldr	r1, [sp, #8]
	ldr	r2, [sp, #0]
	bl	prvCopyDataToQueue
	.loc 1 493 0
	ldr	r3, [sp, #12]
	ldr	r3, [r3, #36]
	cmp	r3, #0
	beq	.L7
	.loc 1 495 0
	ldr	r3, [sp, #12]
	add	r3, r3, #36
	mov	r0, r3
	bl	xTaskRemoveFromEventList
	mov	r3, r0
	cmp	r3, #1
	bne	.L7
	.loc 1 501 0
@ 501 "../../Source/queue.c" 1
	SWI 0
@ 0 "" 2
.L7:
	.loc 1 505 0
	bl	vPortExitCritical
	.loc 1 509 0
	mov	r3, #1
	b	.L17
.L6:
	.loc 1 513 0
	ldr	r3, [sp, #4]
	cmp	r3, #0
	bne	.L9
	.loc 1 517 0
	bl	vPortExitCritical
	.loc 1 522 0
	mov	r3, #0
	b	.L17
.L9:
	.loc 1 524 0
	ldr	r3, [sp, #28]
	cmp	r3, #0
	bne	.L10
	.loc 1 528 0
	add	r3, sp, #20
	mov	r0, r3
	bl	vTaskSetTimeOutState
	.loc 1 529 0
	mov	r3, #1
	str	r3, [sp, #28]
.L10:
	.loc 1 533 0
	bl	vPortExitCritical
	.loc 1 538 0
	bl	vTaskSuspendAll
	.loc 1 539 0
	bl	vPortEnterCritical
	ldr	r3, [sp, #12]
	ldr	r3, [r3, #68]
	cmn	r3, #1
	bne	.L11
	.loc 1 539 0 is_stmt 0 discriminator 1
	ldr	r3, [sp, #12]
	mov	r2, #0
	str	r2, [r3, #68]
.L11:
	.loc 1 539 0 discriminator 2
	ldr	r3, [sp, #12]
	ldr	r3, [r3, #72]
	cmn	r3, #1
	bne	.L12
	.loc 1 539 0 discriminator 3
	ldr	r3, [sp, #12]
	mov	r2, #0
	str	r2, [r3, #72]
.L12:
	.loc 1 539 0 discriminator 4
	bl	vPortExitCritical
	.loc 1 542 0 is_stmt 1 discriminator 4
	add	r2, sp, #20
	add	r3, sp, #4
	mov	r0, r2
	mov	r1, r3
	bl	xTaskCheckForTimeOut
	mov	r3, r0
	cmp	r3, #0
	bne	.L13
	.loc 1 544 0
	ldr	r0, [sp, #12]
	bl	prvIsQueueFull
	mov	r3, r0
	cmp	r3, #0
	beq	.L14
	.loc 1 547 0
	ldr	r3, [sp, #12]
	add	r2, r3, #16
	ldr	r3, [sp, #4]
	mov	r0, r2
	mov	r1, r3
	bl	vTaskPlaceOnEventList
	.loc 1 554 0
	ldr	r0, [sp, #12]
	bl	prvUnlockQueue
	.loc 1 561 0
	bl	xTaskResumeAll
	mov	r3, r0
	cmp	r3, #0
	bne	.L18
	.loc 1 563 0
@ 563 "../../Source/queue.c" 1
	SWI 0
@ 0 "" 2
	.loc 1 584 0
	b	.L18
.L14:
	.loc 1 569 0
	ldr	r0, [sp, #12]
	bl	prvUnlockQueue
	.loc 1 570 0
	bl	xTaskResumeAll
	.loc 1 584 0
	b	.L18
.L13:
	.loc 1 576 0
	ldr	r0, [sp, #12]
	bl	prvUnlockQueue
	.loc 1 577 0
	bl	xTaskResumeAll
	.loc 1 582 0
	mov	r3, #0
.L17:
	.loc 1 585 0
	mov	r0, r3
	add	sp, sp, #36
	ldmfd	sp!, {pc}
	.cfi_endproc
.LFE1:
	.size	xQueueGenericSend, .-xQueueGenericSend
	.align	2
	.global	xQueueGenericSendFromISR
	.type	xQueueGenericSendFromISR, %function
xQueueGenericSendFromISR:
.LFB2:
	.loc 1 795 0
	.cfi_startproc
	@ args = 0, pretend = 0, frame = 24
	@ frame_needed = 0, uses_anonymous_args = 0
	str	lr, [sp, #-4]!
.LCFI4:
	.cfi_def_cfa_offset 4
	.cfi_offset 14, -4
	sub	sp, sp, #28
.LCFI5:
	.cfi_def_cfa_offset 32
	str	r0, [sp, #12]
	str	r1, [sp, #8]
	str	r2, [sp, #4]
	str	r3, [sp, #0]
	.loc 1 808 0
	mov	r3, #0
	str	r3, [sp, #16]
	.loc 1 810 0
	ldr	r3, [sp, #12]
	ldr	r2, [r3, #56]
	ldr	r3, [sp, #12]
	ldr	r3, [r3, #60]
	cmp	r2, r3
	bcs	.L20
	.loc 1 814 0
	ldr	r0, [sp, #12]
	ldr	r1, [sp, #8]
	ldr	r2, [sp, #0]
	bl	prvCopyDataToQueue
	.loc 1 818 0
	ldr	r3, [sp, #12]
	ldr	r3, [r3, #72]
	cmn	r3, #1
	bne	.L21
	.loc 1 820 0
	ldr	r3, [sp, #12]
	ldr	r3, [r3, #36]
	cmp	r3, #0
	beq	.L22
	.loc 1 822 0
	ldr	r3, [sp, #12]
	add	r3, r3, #36
	mov	r0, r3
	bl	xTaskRemoveFromEventList
	mov	r3, r0
	cmp	r3, #0
	beq	.L22
	.loc 1 826 0
	ldr	r3, [sp, #4]
	mov	r2, #1
	str	r2, [r3, #0]
	b	.L22
.L21:
	.loc 1 834 0
	ldr	r3, [sp, #12]
	ldr	r3, [r3, #72]
	add	r2, r3, #1
	ldr	r3, [sp, #12]
	str	r2, [r3, #72]
.L22:
	.loc 1 837 0
	mov	r3, #1
	str	r3, [sp, #20]
	b	.L23
.L20:
	.loc 1 842 0
	mov	r3, #0
	str	r3, [sp, #20]
.L23:
	.loc 1 847 0
	ldr	r3, [sp, #20]
	.loc 1 848 0
	mov	r0, r3
	add	sp, sp, #28
	ldmfd	sp!, {pc}
	.cfi_endproc
.LFE2:
	.size	xQueueGenericSendFromISR, .-xQueueGenericSendFromISR
	.align	2
	.global	xQueueGenericReceive
	.type	xQueueGenericReceive, %function
xQueueGenericReceive:
.LFB3:
	.loc 1 852 0
	.cfi_startproc
	@ args = 0, pretend = 0, frame = 32
	@ frame_needed = 0, uses_anonymous_args = 0
	str	lr, [sp, #-4]!
.LCFI6:
	.cfi_def_cfa_offset 4
	.cfi_offset 14, -4
	sub	sp, sp, #36
.LCFI7:
	.cfi_def_cfa_offset 40
	str	r0, [sp, #12]
	str	r1, [sp, #8]
	str	r2, [sp, #4]
	str	r3, [sp, #0]
	.loc 1 853 0
	mov	r3, #0
	str	r3, [sp, #28]
	b	.L37
.L39:
	.loc 1 997 0
	mov	r0, r0	@ nop
.L37:
	.loc 1 866 0
	bl	vPortEnterCritical
	.loc 1 870 0
	ldr	r3, [sp, #12]
	ldr	r3, [r3, #56]
	cmp	r3, #0
	beq	.L26
	.loc 1 873 0
	ldr	r3, [sp, #12]
	ldr	r3, [r3, #12]
	str	r3, [sp, #24]
	.loc 1 875 0
	ldr	r0, [sp, #12]
	ldr	r1, [sp, #8]
	bl	prvCopyDataFromQueue
	.loc 1 877 0
	ldr	r3, [sp, #0]
	cmp	r3, #0
	bne	.L27
	.loc 1 882 0
	ldr	r3, [sp, #12]
	ldr	r3, [r3, #56]
	sub	r2, r3, #1
	ldr	r3, [sp, #12]
	str	r2, [r3, #56]
	.loc 1 895 0
	ldr	r3, [sp, #12]
	ldr	r3, [r3, #16]
	cmp	r3, #0
	beq	.L28
	.loc 1 897 0
	ldr	r3, [sp, #12]
	add	r3, r3, #16
	mov	r0, r3
	bl	xTaskRemoveFromEventList
	mov	r3, r0
	cmp	r3, #1
	bne	.L28
	.loc 1 899 0
@ 899 "../../Source/queue.c" 1
	SWI 0
@ 0 "" 2
	b	.L28
.L27:
	.loc 1 909 0
	ldr	r3, [sp, #12]
	ldr	r2, [sp, #24]
	str	r2, [r3, #12]
	.loc 1 913 0
	ldr	r3, [sp, #12]
	ldr	r3, [r3, #36]
	cmp	r3, #0
	beq	.L28
	.loc 1 917 0
	ldr	r3, [sp, #12]
	add	r3, r3, #36
	mov	r0, r3
	bl	xTaskRemoveFromEventList
	mov	r3, r0
	cmp	r3, #0
	beq	.L28
	.loc 1 920 0
@ 920 "../../Source/queue.c" 1
	SWI 0
@ 0 "" 2
.L28:
	.loc 1 926 0
	bl	vPortExitCritical
	.loc 1 927 0
	mov	r3, #1
	b	.L38
.L26:
	.loc 1 931 0
	ldr	r3, [sp, #4]
	cmp	r3, #0
	bne	.L30
	.loc 1 935 0
	bl	vPortExitCritical
	.loc 1 937 0
	mov	r3, #0
	b	.L38
.L30:
	.loc 1 939 0
	ldr	r3, [sp, #28]
	cmp	r3, #0
	bne	.L31
	.loc 1 943 0
	add	r3, sp, #16
	mov	r0, r3
	bl	vTaskSetTimeOutState
	.loc 1 944 0
	mov	r3, #1
	str	r3, [sp, #28]
.L31:
	.loc 1 948 0
	bl	vPortExitCritical
	.loc 1 953 0
	bl	vTaskSuspendAll
	.loc 1 954 0
	bl	vPortEnterCritical
	ldr	r3, [sp, #12]
	ldr	r3, [r3, #68]
	cmn	r3, #1
	bne	.L32
	.loc 1 954 0 is_stmt 0 discriminator 1
	ldr	r3, [sp, #12]
	mov	r2, #0
	str	r2, [r3, #68]
.L32:
	.loc 1 954 0 discriminator 2
	ldr	r3, [sp, #12]
	ldr	r3, [r3, #72]
	cmn	r3, #1
	bne	.L33
	.loc 1 954 0 discriminator 3
	ldr	r3, [sp, #12]
	mov	r2, #0
	str	r2, [r3, #72]
.L33:
	.loc 1 954 0 discriminator 4
	bl	vPortExitCritical
	.loc 1 957 0 is_stmt 1 discriminator 4
	add	r2, sp, #16
	add	r3, sp, #4
	mov	r0, r2
	mov	r1, r3
	bl	xTaskCheckForTimeOut
	mov	r3, r0
	cmp	r3, #0
	bne	.L34
	.loc 1 959 0
	ldr	r0, [sp, #12]
	bl	prvIsQueueEmpty
	mov	r3, r0
	cmp	r3, #0
	beq	.L35
	.loc 1 976 0
	ldr	r3, [sp, #12]
	add	r2, r3, #36
	ldr	r3, [sp, #4]
	mov	r0, r2
	mov	r1, r3
	bl	vTaskPlaceOnEventList
	.loc 1 977 0
	ldr	r0, [sp, #12]
	bl	prvUnlockQueue
	.loc 1 978 0
	bl	xTaskResumeAll
	mov	r3, r0
	cmp	r3, #0
	bne	.L39
	.loc 1 980 0
@ 980 "../../Source/queue.c" 1
	SWI 0
@ 0 "" 2
	.loc 1 997 0
	b	.L39
.L35:
	.loc 1 986 0
	ldr	r0, [sp, #12]
	bl	prvUnlockQueue
	.loc 1 987 0
	bl	xTaskResumeAll
	.loc 1 997 0
	b	.L39
.L34:
	.loc 1 992 0
	ldr	r0, [sp, #12]
	bl	prvUnlockQueue
	.loc 1 993 0
	bl	xTaskResumeAll
	.loc 1 995 0
	mov	r3, #0
.L38:
	.loc 1 998 0
	mov	r0, r3
	add	sp, sp, #36
	ldmfd	sp!, {pc}
	.cfi_endproc
.LFE3:
	.size	xQueueGenericReceive, .-xQueueGenericReceive
	.align	2
	.global	xQueueReceiveFromISR
	.type	xQueueReceiveFromISR, %function
xQueueReceiveFromISR:
.LFB4:
	.loc 1 1002 0
	.cfi_startproc
	@ args = 0, pretend = 0, frame = 24
	@ frame_needed = 0, uses_anonymous_args = 0
	str	lr, [sp, #-4]!
.LCFI8:
	.cfi_def_cfa_offset 4
	.cfi_offset 14, -4
	sub	sp, sp, #28
.LCFI9:
	.cfi_def_cfa_offset 32
	str	r0, [sp, #12]
	str	r1, [sp, #8]
	str	r2, [sp, #4]
	.loc 1 1010 0
	mov	r3, #0
	str	r3, [sp, #16]
	.loc 1 1013 0
	ldr	r3, [sp, #12]
	ldr	r3, [r3, #56]
	cmp	r3, #0
	beq	.L41
	.loc 1 1017 0
	ldr	r0, [sp, #12]
	ldr	r1, [sp, #8]
	bl	prvCopyDataFromQueue
	.loc 1 1018 0
	ldr	r3, [sp, #12]
	ldr	r3, [r3, #56]
	sub	r2, r3, #1
	ldr	r3, [sp, #12]
	str	r2, [r3, #56]
	.loc 1 1023 0
	ldr	r3, [sp, #12]
	ldr	r3, [r3, #68]
	cmn	r3, #1
	bne	.L42
	.loc 1 1025 0
	ldr	r3, [sp, #12]
	ldr	r3, [r3, #16]
	cmp	r3, #0
	beq	.L43
	.loc 1 1027 0
	ldr	r3, [sp, #12]
	add	r3, r3, #16
	mov	r0, r3
	bl	xTaskRemoveFromEventList
	mov	r3, r0
	cmp	r3, #0
	beq	.L43
	.loc 1 1031 0
	ldr	r3, [sp, #4]
	mov	r2, #1
	str	r2, [r3, #0]
	b	.L43
.L42:
	.loc 1 1039 0
	ldr	r3, [sp, #12]
	ldr	r3, [r3, #68]
	add	r2, r3, #1
	ldr	r3, [sp, #12]
	str	r2, [r3, #68]
.L43:
	.loc 1 1042 0
	mov	r3, #1
	str	r3, [sp, #20]
	b	.L44
.L41:
	.loc 1 1046 0
	mov	r3, #0
	str	r3, [sp, #20]
.L44:
	.loc 1 1052 0
	ldr	r3, [sp, #20]
	.loc 1 1053 0
	mov	r0, r3
	add	sp, sp, #28
	ldmfd	sp!, {pc}
	.cfi_endproc
.LFE4:
	.size	xQueueReceiveFromISR, .-xQueueReceiveFromISR
	.align	2
	.global	uxQueueMessagesWaiting
	.type	uxQueueMessagesWaiting, %function
uxQueueMessagesWaiting:
.LFB5:
	.loc 1 1057 0
	.cfi_startproc
	@ args = 0, pretend = 0, frame = 16
	@ frame_needed = 0, uses_anonymous_args = 0
	str	lr, [sp, #-4]!
.LCFI10:
	.cfi_def_cfa_offset 4
	.cfi_offset 14, -4
	sub	sp, sp, #20
.LCFI11:
	.cfi_def_cfa_offset 24
	str	r0, [sp, #4]
	.loc 1 1062 0
	bl	vPortEnterCritical
	.loc 1 1063 0
	ldr	r3, [sp, #4]
	ldr	r3, [r3, #56]
	str	r3, [sp, #12]
	.loc 1 1064 0
	bl	vPortExitCritical
	.loc 1 1066 0
	ldr	r3, [sp, #12]
	.loc 1 1067 0
	mov	r0, r3
	add	sp, sp, #20
	ldmfd	sp!, {pc}
	.cfi_endproc
.LFE5:
	.size	uxQueueMessagesWaiting, .-uxQueueMessagesWaiting
	.align	2
	.global	uxQueueMessagesWaitingFromISR
	.type	uxQueueMessagesWaitingFromISR, %function
uxQueueMessagesWaitingFromISR:
.LFB6:
	.loc 1 1071 0
	.cfi_startproc
	@ args = 0, pretend = 0, frame = 16
	@ frame_needed = 0, uses_anonymous_args = 0
	@ link register save eliminated.
	sub	sp, sp, #16
.LCFI12:
	.cfi_def_cfa_offset 16
	str	r0, [sp, #4]
	.loc 1 1076 0
	ldr	r3, [sp, #4]
	ldr	r3, [r3, #56]
	str	r3, [sp, #12]
	.loc 1 1078 0
	ldr	r3, [sp, #12]
	.loc 1 1079 0
	mov	r0, r3
	add	sp, sp, #16
	bx	lr
	.cfi_endproc
.LFE6:
	.size	uxQueueMessagesWaitingFromISR, .-uxQueueMessagesWaitingFromISR
	.align	2
	.global	vQueueDelete
	.type	vQueueDelete, %function
vQueueDelete:
.LFB7:
	.loc 1 1083 0
	.cfi_startproc
	@ args = 0, pretend = 0, frame = 8
	@ frame_needed = 0, uses_anonymous_args = 0
	str	lr, [sp, #-4]!
.LCFI13:
	.cfi_def_cfa_offset 4
	.cfi_offset 14, -4
	sub	sp, sp, #12
.LCFI14:
	.cfi_def_cfa_offset 16
	str	r0, [sp, #4]
	.loc 1 1088 0
	ldr	r3, [sp, #4]
	ldr	r3, [r3, #0]
	mov	r0, r3
	bl	vPortFree
	.loc 1 1089 0
	ldr	r0, [sp, #4]
	bl	vPortFree
	.loc 1 1090 0
	add	sp, sp, #12
	ldmfd	sp!, {pc}
	.cfi_endproc
.LFE7:
	.size	vQueueDelete, .-vQueueDelete
	.align	2
	.type	prvCopyDataToQueue, %function
prvCopyDataToQueue:
.LFB8:
	.loc 1 1094 0
	.cfi_startproc
	@ args = 0, pretend = 0, frame = 16
	@ frame_needed = 0, uses_anonymous_args = 0
	str	lr, [sp, #-4]!
.LCFI15:
	.cfi_def_cfa_offset 4
	.cfi_offset 14, -4
	sub	sp, sp, #20
.LCFI16:
	.cfi_def_cfa_offset 24
	str	r0, [sp, #12]
	str	r1, [sp, #8]
	str	r2, [sp, #4]
	.loc 1 1095 0
	ldr	r3, [sp, #12]
	ldr	r3, [r3, #64]
	cmp	r3, #0
	beq	.L52
	.loc 1 1108 0
	ldr	r3, [sp, #4]
	cmp	r3, #0
	bne	.L53
	.loc 1 1110 0
	ldr	r3, [sp, #12]
	ldr	r2, [r3, #8]
	ldr	r3, [sp, #12]
	ldr	r3, [r3, #64]
	mov	r0, r2
	ldr	r1, [sp, #8]
	mov	r2, r3
	bl	memcpy
	.loc 1 1111 0
	ldr	r3, [sp, #12]
	ldr	r2, [r3, #8]
	ldr	r3, [sp, #12]
	ldr	r3, [r3, #64]
	add	r2, r2, r3
	ldr	r3, [sp, #12]
	str	r2, [r3, #8]
	.loc 1 1112 0
	ldr	r3, [sp, #12]
	ldr	r2, [r3, #8]
	ldr	r3, [sp, #12]
	ldr	r3, [r3, #4]
	cmp	r2, r3
	bcc	.L52
	.loc 1 1114 0
	ldr	r3, [sp, #12]
	ldr	r2, [r3, #0]
	ldr	r3, [sp, #12]
	str	r2, [r3, #8]
	b	.L52
.L53:
	.loc 1 1119 0
	ldr	r3, [sp, #12]
	ldr	r2, [r3, #12]
	ldr	r3, [sp, #12]
	ldr	r3, [r3, #64]
	mov	r0, r2
	ldr	r1, [sp, #8]
	mov	r2, r3
	bl	memcpy
	.loc 1 1120 0
	ldr	r3, [sp, #12]
	ldr	r2, [r3, #12]
	ldr	r3, [sp, #12]
	ldr	r3, [r3, #64]
	rsb	r3, r3, #0
	add	r2, r2, r3
	ldr	r3, [sp, #12]
	str	r2, [r3, #12]
	.loc 1 1121 0
	ldr	r3, [sp, #12]
	ldr	r2, [r3, #12]
	ldr	r3, [sp, #12]
	ldr	r3, [r3, #0]
	cmp	r2, r3
	bcs	.L52
	.loc 1 1123 0
	ldr	r3, [sp, #12]
	ldr	r2, [r3, #4]
	ldr	r3, [sp, #12]
	ldr	r3, [r3, #64]
	rsb	r3, r3, #0
	add	r2, r2, r3
	ldr	r3, [sp, #12]
	str	r2, [r3, #12]
.L52:
	.loc 1 1127 0
	ldr	r3, [sp, #12]
	ldr	r3, [r3, #56]
	add	r2, r3, #1
	ldr	r3, [sp, #12]
	str	r2, [r3, #56]
	.loc 1 1128 0
	add	sp, sp, #20
	ldmfd	sp!, {pc}
	.cfi_endproc
.LFE8:
	.size	prvCopyDataToQueue, .-prvCopyDataToQueue
	.align	2
	.type	prvCopyDataFromQueue, %function
prvCopyDataFromQueue:
.LFB9:
	.loc 1 1132 0
	.cfi_startproc
	@ args = 0, pretend = 0, frame = 8
	@ frame_needed = 0, uses_anonymous_args = 0
	str	lr, [sp, #-4]!
.LCFI17:
	.cfi_def_cfa_offset 4
	.cfi_offset 14, -4
	sub	sp, sp, #12
.LCFI18:
	.cfi_def_cfa_offset 16
	str	r0, [sp, #4]
	str	r1, [sp, #0]
	.loc 1 1133 0
	ldr	r3, [sp, #4]
	ldr	r3, [r3, #0]
	cmp	r3, #0
	beq	.L54
	.loc 1 1135 0
	ldr	r3, [sp, #4]
	ldr	r2, [r3, #12]
	ldr	r3, [sp, #4]
	ldr	r3, [r3, #64]
	add	r2, r2, r3
	ldr	r3, [sp, #4]
	str	r2, [r3, #12]
	.loc 1 1136 0
	ldr	r3, [sp, #4]
	ldr	r2, [r3, #12]
	ldr	r3, [sp, #4]
	ldr	r3, [r3, #4]
	cmp	r2, r3
	bcc	.L56
	.loc 1 1138 0
	ldr	r3, [sp, #4]
	ldr	r2, [r3, #0]
	ldr	r3, [sp, #4]
	str	r2, [r3, #12]
.L56:
	.loc 1 1140 0
	ldr	r3, [sp, #4]
	ldr	r2, [r3, #12]
	ldr	r3, [sp, #4]
	ldr	r3, [r3, #64]
	ldr	r0, [sp, #0]
	mov	r1, r2
	mov	r2, r3
	bl	memcpy
.L54:
	.loc 1 1142 0
	add	sp, sp, #12
	ldmfd	sp!, {pc}
	.cfi_endproc
.LFE9:
	.size	prvCopyDataFromQueue, .-prvCopyDataFromQueue
	.align	2
	.type	prvUnlockQueue, %function
prvUnlockQueue:
.LFB10:
	.loc 1 1146 0
	.cfi_startproc
	@ args = 0, pretend = 0, frame = 8
	@ frame_needed = 0, uses_anonymous_args = 0
	str	lr, [sp, #-4]!
.LCFI19:
	.cfi_def_cfa_offset 4
	.cfi_offset 14, -4
	sub	sp, sp, #12
.LCFI20:
	.cfi_def_cfa_offset 16
	str	r0, [sp, #4]
	.loc 1 1153 0
	bl	vPortEnterCritical
	.loc 1 1156 0
	b	.L58
.L62:
	.loc 1 1160 0
	ldr	r3, [sp, #4]
	ldr	r3, [r3, #36]
	cmp	r3, #0
	beq	.L68
	.loc 1 1164 0
	ldr	r3, [sp, #4]
	add	r3, r3, #36
	mov	r0, r3
	bl	xTaskRemoveFromEventList
	mov	r3, r0
	cmp	r3, #0
	beq	.L60
	.loc 1 1168 0
	bl	vTaskMissedYield
.L60:
	.loc 1 1171 0
	ldr	r3, [sp, #4]
	ldr	r3, [r3, #72]
	sub	r2, r3, #1
	ldr	r3, [sp, #4]
	str	r2, [r3, #72]
.L58:
	.loc 1 1156 0 discriminator 1
	ldr	r3, [sp, #4]
	ldr	r3, [r3, #72]
	cmp	r3, #0
	bgt	.L62
	b	.L61
.L68:
	.loc 1 1175 0
	mov	r0, r0	@ nop
.L61:
	.loc 1 1179 0
	ldr	r3, [sp, #4]
	mvn	r2, #0
	str	r2, [r3, #72]
	.loc 1 1181 0
	bl	vPortExitCritical
	.loc 1 1184 0
	bl	vPortEnterCritical
	.loc 1 1186 0
	b	.L63
.L67:
	.loc 1 1188 0
	ldr	r3, [sp, #4]
	ldr	r3, [r3, #16]
	cmp	r3, #0
	beq	.L69
	.loc 1 1190 0
	ldr	r3, [sp, #4]
	add	r3, r3, #16
	mov	r0, r3
	bl	xTaskRemoveFromEventList
	mov	r3, r0
	cmp	r3, #0
	beq	.L65
	.loc 1 1192 0
	bl	vTaskMissedYield
.L65:
	.loc 1 1195 0
	ldr	r3, [sp, #4]
	ldr	r3, [r3, #68]
	sub	r2, r3, #1
	ldr	r3, [sp, #4]
	str	r2, [r3, #68]
.L63:
	.loc 1 1186 0 discriminator 1
	ldr	r3, [sp, #4]
	ldr	r3, [r3, #68]
	cmp	r3, #0
	bgt	.L67
	b	.L66
.L69:
	.loc 1 1199 0
	mov	r0, r0	@ nop
.L66:
	.loc 1 1203 0
	ldr	r3, [sp, #4]
	mvn	r2, #0
	str	r2, [r3, #68]
	.loc 1 1205 0
	bl	vPortExitCritical
	.loc 1 1206 0
	add	sp, sp, #12
	ldmfd	sp!, {pc}
	.cfi_endproc
.LFE10:
	.size	prvUnlockQueue, .-prvUnlockQueue
	.align	2
	.type	prvIsQueueEmpty, %function
prvIsQueueEmpty:
.LFB11:
	.loc 1 1210 0
	.cfi_startproc
	@ args = 0, pretend = 0, frame = 16
	@ frame_needed = 0, uses_anonymous_args = 0
	str	lr, [sp, #-4]!
.LCFI21:
	.cfi_def_cfa_offset 4
	.cfi_offset 14, -4
	sub	sp, sp, #20
.LCFI22:
	.cfi_def_cfa_offset 24
	str	r0, [sp, #4]
	.loc 1 1213 0
	bl	vPortEnterCritical
	.loc 1 1214 0
	ldr	r3, [sp, #4]
	ldr	r3, [r3, #56]
	cmp	r3, #0
	movne	r3, #0
	moveq	r3, #1
	uxtb	r3, r3
	str	r3, [sp, #12]
	.loc 1 1215 0
	bl	vPortExitCritical
	.loc 1 1217 0
	ldr	r3, [sp, #12]
	.loc 1 1218 0
	mov	r0, r3
	add	sp, sp, #20
	ldmfd	sp!, {pc}
	.cfi_endproc
.LFE11:
	.size	prvIsQueueEmpty, .-prvIsQueueEmpty
	.align	2
	.global	xQueueIsQueueEmptyFromISR
	.type	xQueueIsQueueEmptyFromISR, %function
xQueueIsQueueEmptyFromISR:
.LFB12:
	.loc 1 1222 0
	.cfi_startproc
	@ args = 0, pretend = 0, frame = 16
	@ frame_needed = 0, uses_anonymous_args = 0
	@ link register save eliminated.
	sub	sp, sp, #16
.LCFI23:
	.cfi_def_cfa_offset 16
	str	r0, [sp, #4]
	.loc 1 1226 0
	ldr	r3, [sp, #4]
	ldr	r3, [r3, #56]
	cmp	r3, #0
	movne	r3, #0
	moveq	r3, #1
	uxtb	r3, r3
	str	r3, [sp, #12]
	.loc 1 1228 0
	ldr	r3, [sp, #12]
	.loc 1 1229 0
	mov	r0, r3
	add	sp, sp, #16
	bx	lr
	.cfi_endproc
.LFE12:
	.size	xQueueIsQueueEmptyFromISR, .-xQueueIsQueueEmptyFromISR
	.align	2
	.type	prvIsQueueFull, %function
prvIsQueueFull:
.LFB13:
	.loc 1 1233 0
	.cfi_startproc
	@ args = 0, pretend = 0, frame = 16
	@ frame_needed = 0, uses_anonymous_args = 0
	str	lr, [sp, #-4]!
.LCFI24:
	.cfi_def_cfa_offset 4
	.cfi_offset 14, -4
	sub	sp, sp, #20
.LCFI25:
	.cfi_def_cfa_offset 24
	str	r0, [sp, #4]
	.loc 1 1236 0
	bl	vPortEnterCritical
	.loc 1 1237 0
	ldr	r3, [sp, #4]
	ldr	r2, [r3, #56]
	ldr	r3, [sp, #4]
	ldr	r3, [r3, #60]
	cmp	r2, r3
	movne	r3, #0
	moveq	r3, #1
	uxtb	r3, r3
	str	r3, [sp, #12]
	.loc 1 1238 0
	bl	vPortExitCritical
	.loc 1 1240 0
	ldr	r3, [sp, #12]
	.loc 1 1241 0
	mov	r0, r3
	add	sp, sp, #20
	ldmfd	sp!, {pc}
	.cfi_endproc
.LFE13:
	.size	prvIsQueueFull, .-prvIsQueueFull
	.align	2
	.global	xQueueIsQueueFullFromISR
	.type	xQueueIsQueueFullFromISR, %function
xQueueIsQueueFullFromISR:
.LFB14:
	.loc 1 1245 0
	.cfi_startproc
	@ args = 0, pretend = 0, frame = 16
	@ frame_needed = 0, uses_anonymous_args = 0
	@ link register save eliminated.
	sub	sp, sp, #16
.LCFI26:
	.cfi_def_cfa_offset 16
	str	r0, [sp, #4]
	.loc 1 1249 0
	ldr	r3, [sp, #4]
	ldr	r2, [r3, #56]
	ldr	r3, [sp, #4]
	ldr	r3, [r3, #60]
	cmp	r2, r3
	movne	r3, #0
	moveq	r3, #1
	uxtb	r3, r3
	str	r3, [sp, #12]
	.loc 1 1251 0
	ldr	r3, [sp, #12]
	.loc 1 1252 0
	mov	r0, r3
	add	sp, sp, #16
	bx	lr
	.cfi_endproc
.LFE14:
	.size	xQueueIsQueueFullFromISR, .-xQueueIsQueueFullFromISR
	.align	2
	.global	vQueueWaitForMessageRestricted
	.type	vQueueWaitForMessageRestricted, %function
vQueueWaitForMessageRestricted:
.LFB15:
	.loc 1 1516 0
	.cfi_startproc
	@ args = 0, pretend = 0, frame = 8
	@ frame_needed = 0, uses_anonymous_args = 0
	str	lr, [sp, #-4]!
.LCFI27:
	.cfi_def_cfa_offset 4
	.cfi_offset 14, -4
	sub	sp, sp, #12
.LCFI28:
	.cfi_def_cfa_offset 16
	str	r0, [sp, #4]
	str	r1, [sp, #0]
	.loc 1 1531 0
	bl	vPortEnterCritical
	ldr	r3, [sp, #4]
	ldr	r3, [r3, #68]
	cmn	r3, #1
	bne	.L79
	.loc 1 1531 0 is_stmt 0 discriminator 1
	ldr	r3, [sp, #4]
	mov	r2, #0
	str	r2, [r3, #68]
.L79:
	.loc 1 1531 0 discriminator 2
	ldr	r3, [sp, #4]
	ldr	r3, [r3, #72]
	cmn	r3, #1
	bne	.L80
	.loc 1 1531 0 discriminator 3
	ldr	r3, [sp, #4]
	mov	r2, #0
	str	r2, [r3, #72]
.L80:
	.loc 1 1531 0 discriminator 4
	bl	vPortExitCritical
	.loc 1 1532 0 is_stmt 1 discriminator 4
	ldr	r3, [sp, #4]
	ldr	r3, [r3, #56]
	cmp	r3, #0
	bne	.L81
	.loc 1 1535 0
	ldr	r3, [sp, #4]
	add	r3, r3, #36
	mov	r0, r3
	ldr	r1, [sp, #0]
	bl	vTaskPlaceOnEventListRestricted
.L81:
	.loc 1 1537 0
	ldr	r0, [sp, #4]
	bl	prvUnlockQueue
	.loc 1 1538 0
	add	sp, sp, #12
	ldmfd	sp!, {pc}
	.cfi_endproc
.LFE15:
	.size	vQueueWaitForMessageRestricted, .-vQueueWaitForMessageRestricted
.Letext0:
	.file 2 "/home/tdwood/CodeSourcery/Sourcery_CodeBench_Lite_for_ARM_EABI/bin/../lib/gcc/arm-none-eabi/4.7.3/include/stddef.h"
	.file 3 "../../Source/include/../../Source/portable/GCC/OMAP3_BeagleBoard/portmacro.h"
	.file 4 "../../Source/include/list.h"
	.file 5 "../../Source/include/task.h"