
rtosdemo.elf:     file format elf32-littlearm


Disassembly of section startup:

80300000 <_undf-0x20>:
80300000:	ea001476 	b	803051e0 <start>
80300004:	e59ff014 	ldr	pc, [pc, #20]	; 80300020 <_undf>
80300008:	e59ff014 	ldr	pc, [pc, #20]	; 80300024 <_swi>
8030000c:	e59ff014 	ldr	pc, [pc, #20]	; 80300028 <_pabt>
80300010:	e59ff014 	ldr	pc, [pc, #20]	; 8030002c <_dabt>
80300014:	e320f000 	nop	{0}
80300018:	e51ffff0 	ldr	pc, [pc, #-4080]	; 802ff030 <IRQ_STACK_SIZE+0x802fec30>
8030001c:	e59ff00c 	ldr	pc, [pc, #12]	; 80300030 <_fiq>

80300020 <_undf>:
80300020:	4020ffe4 	.word	0x4020ffe4

80300024 <_swi>:
80300024:	4020ffe8 	.word	0x4020ffe8

80300028 <_pabt>:
80300028:	4020ffec 	.word	0x4020ffec

8030002c <_dabt>:
8030002c:	4020fff0 	.word	0x4020fff0

80300030 <_fiq>:
80300030:	4020fffc 	.word	0x4020fffc

80300034 <__undf>:
80300034:	eafffffe 	b	80300034 <__undf>

80300038 <__pabt>:
80300038:	eafffffe 	b	80300038 <__pabt>

8030003c <__dabt>:
8030003c:	eafffffe 	b	8030003c <__dabt>

80300040 <__fiq>:
80300040:	eafffffe 	b	80300040 <__fiq>

Disassembly of section prog:

80300044 <vPortISRStartFirstTask>:
80300044:	e59f028c 	ldr	r0, [pc, #652]	; 803002d8 <vPortExitCritical+0x5c>
80300048:	e5900000 	ldr	r0, [r0]
8030004c:	e590e000 	ldr	lr, [r0]
80300050:	e59f0284 	ldr	r0, [pc, #644]	; 803002dc <vPortExitCritical+0x60>
80300054:	e8be0002 	ldm	lr!, {r1}
80300058:	e5801000 	str	r1, [r0]
8030005c:	e8be0001 	ldm	lr!, {r0}
80300060:	e169f000 	msr	SPSR_fc, r0
80300064:	e8de7fff 	ldm	lr, {r0, r1, r2, r3, r4, r5, r6, r7, r8, r9, sl, fp, ip, sp, lr}^
80300068:	e320f000 	nop	{0}
8030006c:	e59ee03c 	ldr	lr, [lr, #60]	; 0x3c
80300070:	e25ef004 	subs	pc, lr, #4
80300074:	e3053a7c 	movw	r3, #23164	; 0x5a7c
80300078:	e3483030 	movt	r3, #32816	; 0x8030
8030007c:	e5933000 	ldr	r3, [r3]
80300080:	e3053ac8 	movw	r3, #23240	; 0x5ac8
80300084:	e3483030 	movt	r3, #32816	; 0x8030
80300088:	e5933000 	ldr	r3, [r3]
8030008c:	e12fff1e 	bx	lr

80300090 <vIRQHandler>:
80300090:	e92d0001 	stmfd	sp!, {r0}
80300094:	e94d2000 	stmdb	sp, {sp}^
80300098:	e320f000 	nop	{0}
8030009c:	e24dd004 	sub	sp, sp, #4
803000a0:	e8bd0001 	ldmfd	sp!, {r0}
803000a4:	e9204000 	stmdb	r0!, {lr}
803000a8:	e1a0e000 	mov	lr, r0
803000ac:	e8bd0001 	ldmfd	sp!, {r0}
803000b0:	e94e7fff 	stmdb	lr, {r0, r1, r2, r3, r4, r5, r6, r7, r8, r9, sl, fp, ip, sp, lr}^
803000b4:	e320f000 	nop	{0}
803000b8:	e24ee03c 	sub	lr, lr, #60	; 0x3c
803000bc:	e14f0000 	mrs	r0, SPSR
803000c0:	e92e0001 	stmdb	lr!, {r0}
803000c4:	e59f0210 	ldr	r0, [pc, #528]	; 803002dc <vPortExitCritical+0x60>
803000c8:	e5900000 	ldr	r0, [r0]
803000cc:	e92e0001 	stmdb	lr!, {r0}
803000d0:	e59f0200 	ldr	r0, [pc, #512]	; 803002d8 <vPortExitCritical+0x5c>
803000d4:	e5900000 	ldr	r0, [r0]
803000d8:	e580e000 	str	lr, [r0]
803000dc:	e3053a7c 	movw	r3, #23164	; 0x5a7c
803000e0:	e3483030 	movt	r3, #32816	; 0x8030
803000e4:	e5933000 	ldr	r3, [r3]
803000e8:	e3053ac8 	movw	r3, #23240	; 0x5ac8
803000ec:	e3483030 	movt	r3, #32816	; 0x8030
803000f0:	e5933000 	ldr	r3, [r3]
803000f4:	e3a03040 	mov	r3, #64	; 0x40
803000f8:	e3443820 	movt	r3, #18464	; 0x4820
803000fc:	e5933000 	ldr	r3, [r3]
80300100:	e3530025 	cmp	r3, #37	; 0x25
80300104:	1a000000 	bne	8030010c <vIRQHandler+0x7c>
80300108:	eb00003e 	bl	80300208 <vTickISR>
8030010c:	e59f01c4 	ldr	r0, [pc, #452]	; 803002d8 <vPortExitCritical+0x5c>
80300110:	e5900000 	ldr	r0, [r0]
80300114:	e590e000 	ldr	lr, [r0]
80300118:	e59f01bc 	ldr	r0, [pc, #444]	; 803002dc <vPortExitCritical+0x60>
8030011c:	e8be0002 	ldm	lr!, {r1}
80300120:	e5801000 	str	r1, [r0]
80300124:	e8be0001 	ldm	lr!, {r0}
80300128:	e169f000 	msr	SPSR_fc, r0
8030012c:	e8de7fff 	ldm	lr, {r0, r1, r2, r3, r4, r5, r6, r7, r8, r9, sl, fp, ip, sp, lr}^
80300130:	e320f000 	nop	{0}
80300134:	e59ee03c 	ldr	lr, [lr, #60]	; 0x3c
80300138:	e25ef004 	subs	pc, lr, #4
8030013c:	e3053a7c 	movw	r3, #23164	; 0x5a7c
80300140:	e3483030 	movt	r3, #32816	; 0x8030
80300144:	e5933000 	ldr	r3, [r3]
80300148:	e3053ac8 	movw	r3, #23240	; 0x5ac8
8030014c:	e3483030 	movt	r3, #32816	; 0x8030
80300150:	e5933000 	ldr	r3, [r3]

80300154 <vPortYieldProcessor>:
80300154:	e28ee004 	add	lr, lr, #4
80300158:	e92d0001 	stmfd	sp!, {r0}
8030015c:	e94d2000 	stmdb	sp, {sp}^
80300160:	e320f000 	nop	{0}
80300164:	e24dd004 	sub	sp, sp, #4
80300168:	e8bd0001 	ldmfd	sp!, {r0}
8030016c:	e9204000 	stmdb	r0!, {lr}
80300170:	e1a0e000 	mov	lr, r0
80300174:	e8bd0001 	ldmfd	sp!, {r0}
80300178:	e94e7fff 	stmdb	lr, {r0, r1, r2, r3, r4, r5, r6, r7, r8, r9, sl, fp, ip, sp, lr}^
8030017c:	e320f000 	nop	{0}
80300180:	e24ee03c 	sub	lr, lr, #60	; 0x3c
80300184:	e14f0000 	mrs	r0, SPSR
80300188:	e92e0001 	stmdb	lr!, {r0}
8030018c:	e59f0148 	ldr	r0, [pc, #328]	; 803002dc <vPortExitCritical+0x60>
80300190:	e5900000 	ldr	r0, [r0]
80300194:	e92e0001 	stmdb	lr!, {r0}
80300198:	e59f0138 	ldr	r0, [pc, #312]	; 803002d8 <vPortExitCritical+0x5c>
8030019c:	e5900000 	ldr	r0, [r0]
803001a0:	e580e000 	str	lr, [r0]
803001a4:	e3053a7c 	movw	r3, #23164	; 0x5a7c
803001a8:	e3483030 	movt	r3, #32816	; 0x8030
803001ac:	e5933000 	ldr	r3, [r3]
803001b0:	e3053ac8 	movw	r3, #23240	; 0x5ac8
803001b4:	e3483030 	movt	r3, #32816	; 0x8030
803001b8:	e5933000 	ldr	r3, [r3]
803001bc:	eb000714 	bl	80301e14 <vTaskSwitchContext>
803001c0:	e59f0110 	ldr	r0, [pc, #272]	; 803002d8 <vPortExitCritical+0x5c>
803001c4:	e5900000 	ldr	r0, [r0]
803001c8:	e590e000 	ldr	lr, [r0]
803001cc:	e59f0108 	ldr	r0, [pc, #264]	; 803002dc <vPortExitCritical+0x60>
803001d0:	e8be0002 	ldm	lr!, {r1}
803001d4:	e5801000 	str	r1, [r0]
803001d8:	e8be0001 	ldm	lr!, {r0}
803001dc:	e169f000 	msr	SPSR_fc, r0
803001e0:	e8de7fff 	ldm	lr, {r0, r1, r2, r3, r4, r5, r6, r7, r8, r9, sl, fp, ip, sp, lr}^
803001e4:	e320f000 	nop	{0}
803001e8:	e59ee03c 	ldr	lr, [lr, #60]	; 0x3c
803001ec:	e25ef004 	subs	pc, lr, #4
803001f0:	e3053a7c 	movw	r3, #23164	; 0x5a7c
803001f4:	e3483030 	movt	r3, #32816	; 0x8030
803001f8:	e5933000 	ldr	r3, [r3]
803001fc:	e3053ac8 	movw	r3, #23240	; 0x5ac8
80300200:	e3483030 	movt	r3, #32816	; 0x8030
80300204:	e5933000 	ldr	r3, [r3]

80300208 <vTickISR>:
80300208:	e52de004 	push	{lr}		; (str lr, [sp, #-4]!)
8030020c:	eb00066b 	bl	80301bc0 <vTaskIncrementTick>
80300210:	eb0006ff 	bl	80301e14 <vTaskSwitchContext>
80300214:	e3083018 	movw	r3, #32792	; 0x8018
80300218:	e3443831 	movt	r3, #18481	; 0x4831
8030021c:	e3a02001 	mov	r2, #1
80300220:	e5832000 	str	r2, [r3]
80300224:	e3083030 	movw	r3, #32816	; 0x8030
80300228:	e3443831 	movt	r3, #18481	; 0x4831
8030022c:	e3a020ff 	mov	r2, #255	; 0xff
80300230:	e5832000 	str	r2, [r3]
80300234:	e3a03048 	mov	r3, #72	; 0x48
80300238:	e3443820 	movt	r3, #18464	; 0x4820
8030023c:	e3a02001 	mov	r2, #1
80300240:	e5832000 	str	r2, [r3]
80300244:	e49de004 	pop	{lr}		; (ldr lr, [sp], #4)

80300248 <vPortEnterCritical>:
80300248:	e92d0001 	stmfd	sp!, {r0}
8030024c:	e10f0000 	mrs	r0, CPSR
80300250:	e38000c0 	orr	r0, r0, #192	; 0xc0
80300254:	e129f000 	msr	CPSR_fc, r0
80300258:	e8bd0001 	ldmfd	sp!, {r0}
8030025c:	e3053a7c 	movw	r3, #23164	; 0x5a7c
80300260:	e3483030 	movt	r3, #32816	; 0x8030
80300264:	e5933000 	ldr	r3, [r3]
80300268:	e2832001 	add	r2, r3, #1
8030026c:	e3053a7c 	movw	r3, #23164	; 0x5a7c
80300270:	e3483030 	movt	r3, #32816	; 0x8030
80300274:	e5832000 	str	r2, [r3]
80300278:	e12fff1e 	bx	lr

8030027c <vPortExitCritical>:
8030027c:	e3053a7c 	movw	r3, #23164	; 0x5a7c
80300280:	e3483030 	movt	r3, #32816	; 0x8030
80300284:	e5933000 	ldr	r3, [r3]
80300288:	e3530000 	cmp	r3, #0
8030028c:	0a000010 	beq	803002d4 <vPortExitCritical+0x58>
80300290:	e3053a7c 	movw	r3, #23164	; 0x5a7c
80300294:	e3483030 	movt	r3, #32816	; 0x8030
80300298:	e5933000 	ldr	r3, [r3]
8030029c:	e2432001 	sub	r2, r3, #1
803002a0:	e3053a7c 	movw	r3, #23164	; 0x5a7c
803002a4:	e3483030 	movt	r3, #32816	; 0x8030
803002a8:	e5832000 	str	r2, [r3]
803002ac:	e3053a7c 	movw	r3, #23164	; 0x5a7c
803002b0:	e3483030 	movt	r3, #32816	; 0x8030
803002b4:	e5933000 	ldr	r3, [r3]
803002b8:	e3530000 	cmp	r3, #0
803002bc:	1a000004 	bne	803002d4 <vPortExitCritical+0x58>
803002c0:	e92d0001 	stmfd	sp!, {r0}
803002c4:	e10f0000 	mrs	r0, CPSR
803002c8:	e3c000c0 	bic	r0, r0, #192	; 0xc0
803002cc:	e129f000 	msr	CPSR_fc, r0
803002d0:	e8bd0001 	ldmfd	sp!, {r0}
803002d4:	e12fff1e 	bx	lr
803002d8:	80305ac8 	.word	0x80305ac8
803002dc:	80305a7c 	.word	0x80305a7c

803002e0 <main>:
803002e0:	e52de004 	push	{lr}		; (str lr, [sp, #-4]!)
803002e4:	e24dd01c 	sub	sp, sp, #28
803002e8:	e3a03000 	mov	r3, #0
803002ec:	e58d3010 	str	r3, [sp, #16]
803002f0:	e3a03070 	mov	r3, #112	; 0x70
803002f4:	e58d3014 	str	r3, [sp, #20]
803002f8:	eb000068 	bl	803004a0 <prvSetupHardware>
803002fc:	e30f0fc0 	movw	r0, #65472	; 0xffc0
80300300:	e3440020 	movt	r0, #16416	; 0x4020
80300304:	e3a01040 	mov	r1, #64	; 0x40
80300308:	eb00125d 	bl	80304c84 <memdump_32>
8030030c:	e3050808 	movw	r0, #22536	; 0x5808
80300310:	e3480030 	movt	r0, #32816	; 0x8030
80300314:	eb001248 	bl	80304c3c <serial_printf>
80300318:	eb000e49 	bl	80303c44 <serial_getc>
8030031c:	e58d0014 	str	r0, [sp, #20]
80300320:	e3050828 	movw	r0, #22568	; 0x5828
80300324:	e3480030 	movt	r0, #32816	; 0x8030
80300328:	e59d1014 	ldr	r1, [sp, #20]
8030032c:	eb001242 	bl	80304c3c <serial_printf>
80300330:	e3a03001 	mov	r3, #1
80300334:	e58d3000 	str	r3, [sp]
80300338:	e28d3010 	add	r3, sp, #16
8030033c:	e58d3004 	str	r3, [sp, #4]
80300340:	e3a03000 	mov	r3, #0
80300344:	e58d3008 	str	r3, [sp, #8]
80300348:	e3a03000 	mov	r3, #0
8030034c:	e58d300c 	str	r3, [sp, #12]
80300350:	e3040f50 	movw	r0, #20304	; 0x4f50
80300354:	e3480030 	movt	r0, #32816	; 0x8030
80300358:	e3051838 	movw	r1, #22584	; 0x5838
8030035c:	e3481030 	movt	r1, #32816	; 0x8030
80300360:	e3a02080 	mov	r2, #128	; 0x80
80300364:	e3a03000 	mov	r3, #0
80300368:	eb0002aa 	bl	80300e18 <xTaskGenericCreate>
8030036c:	e59d3010 	ldr	r3, [sp, #16]
80300370:	e3530000 	cmp	r3, #0
80300374:	1a000002 	bne	80300384 <main+0xa4>
80300378:	e3050844 	movw	r0, #22596	; 0x5844
8030037c:	e3480030 	movt	r0, #32816	; 0x8030
80300380:	eb00122d 	bl	80304c3c <serial_printf>
80300384:	e3a03001 	mov	r3, #1
80300388:	e58d3000 	str	r3, [sp]
8030038c:	e28d3010 	add	r3, sp, #16
80300390:	e58d3004 	str	r3, [sp, #4]
80300394:	e3a03000 	mov	r3, #0
80300398:	e58d3008 	str	r3, [sp, #8]
8030039c:	e3a03000 	mov	r3, #0
803003a0:	e58d300c 	str	r3, [sp, #12]
803003a4:	e3040fa0 	movw	r0, #20384	; 0x4fa0
803003a8:	e3480030 	movt	r0, #32816	; 0x8030
803003ac:	e3051864 	movw	r1, #22628	; 0x5864
803003b0:	e3481030 	movt	r1, #32816	; 0x8030
803003b4:	e3a02080 	mov	r2, #128	; 0x80
803003b8:	e3a03000 	mov	r3, #0
803003bc:	eb000295 	bl	80300e18 <xTaskGenericCreate>
803003c0:	e59d3010 	ldr	r3, [sp, #16]
803003c4:	e3530000 	cmp	r3, #0
803003c8:	1a000002 	bne	803003d8 <main+0xf8>
803003cc:	e3050870 	movw	r0, #22640	; 0x5870
803003d0:	e3480030 	movt	r0, #32816	; 0x8030
803003d4:	eb001218 	bl	80304c3c <serial_printf>
803003d8:	e3a03001 	mov	r3, #1
803003dc:	e58d3000 	str	r3, [sp]
803003e0:	e28d3010 	add	r3, sp, #16
803003e4:	e58d3004 	str	r3, [sp, #4]
803003e8:	e3a03000 	mov	r3, #0
803003ec:	e58d3008 	str	r3, [sp, #8]
803003f0:	e3a03000 	mov	r3, #0
803003f4:	e58d300c 	str	r3, [sp, #12]
803003f8:	e3050118 	movw	r0, #20760	; 0x5118
803003fc:	e3480030 	movt	r0, #32816	; 0x8030
80300400:	e3051890 	movw	r1, #22672	; 0x5890
80300404:	e3481030 	movt	r1, #32816	; 0x8030
80300408:	e3a02080 	mov	r2, #128	; 0x80
8030040c:	e3a03000 	mov	r3, #0
80300410:	eb000280 	bl	80300e18 <xTaskGenericCreate>
80300414:	e59d3010 	ldr	r3, [sp, #16]
80300418:	e3530000 	cmp	r3, #0
8030041c:	1a000002 	bne	8030042c <main+0x14c>
80300420:	e305089c 	movw	r0, #22684	; 0x589c
80300424:	e3480030 	movt	r0, #32816	; 0x8030
80300428:	eb001203 	bl	80304c3c <serial_printf>
8030042c:	e3a03001 	mov	r3, #1
80300430:	e58d3000 	str	r3, [sp]
80300434:	e28d3010 	add	r3, sp, #16
80300438:	e58d3004 	str	r3, [sp, #4]
8030043c:	e3a03000 	mov	r3, #0
80300440:	e58d3008 	str	r3, [sp, #8]
80300444:	e3a03000 	mov	r3, #0
80300448:	e58d300c 	str	r3, [sp, #12]
8030044c:	e305017c 	movw	r0, #20860	; 0x517c
80300450:	e3480030 	movt	r0, #32816	; 0x8030
80300454:	e30518b8 	movw	r1, #22712	; 0x58b8
80300458:	e3481030 	movt	r1, #32816	; 0x8030
8030045c:	e3a02080 	mov	r2, #128	; 0x80
80300460:	e3a03000 	mov	r3, #0
80300464:	eb00026b 	bl	80300e18 <xTaskGenericCreate>
80300468:	e59d3010 	ldr	r3, [sp, #16]
8030046c:	e3530000 	cmp	r3, #0
80300470:	1a000002 	bne	80300480 <main+0x1a0>
80300474:	e30508c4 	movw	r0, #22724	; 0x58c4
80300478:	e3480030 	movt	r0, #32816	; 0x8030
8030047c:	eb0011ee 	bl	80304c3c <serial_printf>
80300480:	e30508e0 	movw	r0, #22752	; 0x58e0
80300484:	e3480030 	movt	r0, #32816	; 0x8030
80300488:	eb0011eb 	bl	80304c3c <serial_printf>
8030048c:	eb000501 	bl	80301898 <vTaskStartScheduler>
80300490:	e3a03000 	mov	r3, #0
80300494:	e1a00003 	mov	r0, r3
80300498:	e28dd01c 	add	sp, sp, #28
8030049c:	e8bd8000 	ldmfd	sp!, {pc}

803004a0 <prvSetupHardware>:
803004a0:	e3063034 	movw	r3, #24628	; 0x6034
803004a4:	e3443905 	movt	r3, #18693	; 0x4905
803004a8:	e3002fff 	movw	r2, #4095	; 0xfff
803004ac:	e3402f9f 	movt	r2, #3999	; 0xf9f
803004b0:	e5832000 	str	r2, [r3]
803004b4:	e3083034 	movw	r3, #32820	; 0x8034
803004b8:	e3443905 	movt	r3, #18693	; 0x4905
803004bc:	e30f2af9 	movw	r2, #64249	; 0xfaf9
803004c0:	e34f2f7f 	movt	r2, #65407	; 0xff7f
803004c4:	e5832000 	str	r2, [r3]
803004c8:	e3063090 	movw	r3, #24720	; 0x6090
803004cc:	e3443905 	movt	r3, #18693	; 0x4905
803004d0:	e3a02606 	mov	r2, #6291456	; 0x600000
803004d4:	e5832000 	str	r2, [r3]
803004d8:	e12fff1e 	bx	lr

803004dc <xTimerCreateTimerTask>:
803004dc:	e52de004 	push	{lr}		; (str lr, [sp, #-4]!)
803004e0:	e24dd01c 	sub	sp, sp, #28
803004e4:	e3a03000 	mov	r3, #0
803004e8:	e58d3014 	str	r3, [sp, #20]
803004ec:	eb00020e 	bl	80300d2c <prvCheckForValidListAndQueue>
803004f0:	e3053ac0 	movw	r3, #23232	; 0x5ac0
803004f4:	e3483030 	movt	r3, #32816	; 0x8030
803004f8:	e5933000 	ldr	r3, [r3]
803004fc:	e3530000 	cmp	r3, #0
80300500:	0a00000f 	beq	80300544 <xTimerCreateTimerTask+0x68>
80300504:	e3a03004 	mov	r3, #4
80300508:	e58d3000 	str	r3, [sp]
8030050c:	e3a03000 	mov	r3, #0
80300510:	e58d3004 	str	r3, [sp, #4]
80300514:	e3a03000 	mov	r3, #0
80300518:	e58d3008 	str	r3, [sp, #8]
8030051c:	e3a03000 	mov	r3, #0
80300520:	e58d300c 	str	r3, [sp, #12]
80300524:	e30007a4 	movw	r0, #1956	; 0x7a4
80300528:	e3480030 	movt	r0, #32816	; 0x8030
8030052c:	e30518f4 	movw	r1, #22772	; 0x58f4
80300530:	e3481030 	movt	r1, #32816	; 0x8030
80300534:	e3a02c01 	mov	r2, #256	; 0x100
80300538:	e3a03000 	mov	r3, #0
8030053c:	eb000235 	bl	80300e18 <xTaskGenericCreate>
80300540:	e58d0014 	str	r0, [sp, #20]
80300544:	e59d3014 	ldr	r3, [sp, #20]
80300548:	e1a00003 	mov	r0, r3
8030054c:	e28dd01c 	add	sp, sp, #28
80300550:	e8bd8000 	ldmfd	sp!, {pc}

80300554 <xTimerCreate>:
80300554:	e52de004 	push	{lr}		; (str lr, [sp, #-4]!)
80300558:	e24dd01c 	sub	sp, sp, #28
8030055c:	e58d000c 	str	r0, [sp, #12]
80300560:	e58d1008 	str	r1, [sp, #8]
80300564:	e58d2004 	str	r2, [sp, #4]
80300568:	e58d3000 	str	r3, [sp]
8030056c:	e59d3008 	ldr	r3, [sp, #8]
80300570:	e3530000 	cmp	r3, #0
80300574:	1a000002 	bne	80300584 <xTimerCreate+0x30>
80300578:	e3a03000 	mov	r3, #0
8030057c:	e58d3014 	str	r3, [sp, #20]
80300580:	ea000019 	b	803005ec <xTimerCreate+0x98>
80300584:	e3a00028 	mov	r0, #40	; 0x28
80300588:	eb000bb8 	bl	80303470 <pvPortMalloc>
8030058c:	e58d0014 	str	r0, [sp, #20]
80300590:	e59d3014 	ldr	r3, [sp, #20]
80300594:	e3530000 	cmp	r3, #0
80300598:	0a000013 	beq	803005ec <xTimerCreate+0x98>
8030059c:	eb0001e2 	bl	80300d2c <prvCheckForValidListAndQueue>
803005a0:	e59d3014 	ldr	r3, [sp, #20]
803005a4:	e59d200c 	ldr	r2, [sp, #12]
803005a8:	e5832000 	str	r2, [r3]
803005ac:	e59d3014 	ldr	r3, [sp, #20]
803005b0:	e59d2008 	ldr	r2, [sp, #8]
803005b4:	e5832018 	str	r2, [r3, #24]
803005b8:	e59d3014 	ldr	r3, [sp, #20]
803005bc:	e59d2004 	ldr	r2, [sp, #4]
803005c0:	e583201c 	str	r2, [r3, #28]
803005c4:	e59d3014 	ldr	r3, [sp, #20]
803005c8:	e59d2000 	ldr	r2, [sp]
803005cc:	e5832020 	str	r2, [r3, #32]
803005d0:	e59d3014 	ldr	r3, [sp, #20]
803005d4:	e59d2020 	ldr	r2, [sp, #32]
803005d8:	e5832024 	str	r2, [r3, #36]	; 0x24
803005dc:	e59d3014 	ldr	r3, [sp, #20]
803005e0:	e2833004 	add	r3, r3, #4
803005e4:	e1a00003 	mov	r0, r3
803005e8:	eb000b23 	bl	8030327c <vListInitialiseItem>
803005ec:	e59d3014 	ldr	r3, [sp, #20]
803005f0:	e1a00003 	mov	r0, r3
803005f4:	e28dd01c 	add	sp, sp, #28
803005f8:	e8bd8000 	ldmfd	sp!, {pc}

803005fc <xTimerGenericCommand>:
803005fc:	e52de004 	push	{lr}		; (str lr, [sp, #-4]!)
80300600:	e24dd024 	sub	sp, sp, #36	; 0x24
80300604:	e58d000c 	str	r0, [sp, #12]
80300608:	e58d1008 	str	r1, [sp, #8]
8030060c:	e58d2004 	str	r2, [sp, #4]
80300610:	e58d3000 	str	r3, [sp]
80300614:	e3a03000 	mov	r3, #0
80300618:	e58d301c 	str	r3, [sp, #28]
8030061c:	e3053ac0 	movw	r3, #23232	; 0x5ac0
80300620:	e3483030 	movt	r3, #32816	; 0x8030
80300624:	e5933000 	ldr	r3, [r3]
80300628:	e3530000 	cmp	r3, #0
8030062c:	0a00002c 	beq	803006e4 <xTimerGenericCommand+0xe8>
80300630:	e59d3008 	ldr	r3, [sp, #8]
80300634:	e58d3010 	str	r3, [sp, #16]
80300638:	e59d3004 	ldr	r3, [sp, #4]
8030063c:	e58d3014 	str	r3, [sp, #20]
80300640:	e59d300c 	ldr	r3, [sp, #12]
80300644:	e58d3018 	str	r3, [sp, #24]
80300648:	e59d3000 	ldr	r3, [sp]
8030064c:	e3530000 	cmp	r3, #0
80300650:	1a000019 	bne	803006bc <xTimerGenericCommand+0xc0>
80300654:	eb00080a 	bl	80302684 <xTaskGetSchedulerState>
80300658:	e1a03000 	mov	r3, r0
8030065c:	e3530001 	cmp	r3, #1
80300660:	1a00000a 	bne	80300690 <xTimerGenericCommand+0x94>
80300664:	e3053ac0 	movw	r3, #23232	; 0x5ac0
80300668:	e3483030 	movt	r3, #32816	; 0x8030
8030066c:	e5932000 	ldr	r2, [r3]
80300670:	e28d3010 	add	r3, sp, #16
80300674:	e1a00002 	mov	r0, r2
80300678:	e1a01003 	mov	r1, r3
8030067c:	e59d2028 	ldr	r2, [sp, #40]	; 0x28
80300680:	e3a03000 	mov	r3, #0
80300684:	eb000867 	bl	80302828 <xQueueGenericSend>
80300688:	e58d001c 	str	r0, [sp, #28]
8030068c:	ea000014 	b	803006e4 <xTimerGenericCommand+0xe8>
80300690:	e3053ac0 	movw	r3, #23232	; 0x5ac0
80300694:	e3483030 	movt	r3, #32816	; 0x8030
80300698:	e5932000 	ldr	r2, [r3]
8030069c:	e28d3010 	add	r3, sp, #16
803006a0:	e1a00002 	mov	r0, r2
803006a4:	e1a01003 	mov	r1, r3
803006a8:	e3a02000 	mov	r2, #0
803006ac:	e3a03000 	mov	r3, #0
803006b0:	eb00085c 	bl	80302828 <xQueueGenericSend>
803006b4:	e58d001c 	str	r0, [sp, #28]
803006b8:	ea000009 	b	803006e4 <xTimerGenericCommand+0xe8>
803006bc:	e3053ac0 	movw	r3, #23232	; 0x5ac0
803006c0:	e3483030 	movt	r3, #32816	; 0x8030
803006c4:	e5932000 	ldr	r2, [r3]
803006c8:	e28d3010 	add	r3, sp, #16
803006cc:	e1a00002 	mov	r0, r2
803006d0:	e1a01003 	mov	r1, r3
803006d4:	e59d2000 	ldr	r2, [sp]
803006d8:	e3a03000 	mov	r3, #0
803006dc:	eb0008bb 	bl	803029d0 <xQueueGenericSendFromISR>
803006e0:	e58d001c 	str	r0, [sp, #28]
803006e4:	e59d301c 	ldr	r3, [sp, #28]
803006e8:	e1a00003 	mov	r0, r3
803006ec:	e28dd024 	add	sp, sp, #36	; 0x24
803006f0:	e8bd8000 	ldmfd	sp!, {pc}

803006f4 <prvProcessExpiredTimer>:
803006f4:	e52de004 	push	{lr}		; (str lr, [sp, #-4]!)
803006f8:	e24dd01c 	sub	sp, sp, #28
803006fc:	e58d000c 	str	r0, [sp, #12]
80300700:	e58d1008 	str	r1, [sp, #8]
80300704:	e3053ab8 	movw	r3, #23224	; 0x5ab8
80300708:	e3483030 	movt	r3, #32816	; 0x8030
8030070c:	e5933000 	ldr	r3, [r3]
80300710:	e593300c 	ldr	r3, [r3, #12]
80300714:	e593300c 	ldr	r3, [r3, #12]
80300718:	e58d3014 	str	r3, [sp, #20]
8030071c:	e59d3014 	ldr	r3, [sp, #20]
80300720:	e2833004 	add	r3, r3, #4
80300724:	e1a00003 	mov	r0, r3
80300728:	eb000b2e 	bl	803033e8 <vListRemove>
8030072c:	e59d3014 	ldr	r3, [sp, #20]
80300730:	e593301c 	ldr	r3, [r3, #28]
80300734:	e3530001 	cmp	r3, #1
80300738:	1a000013 	bne	8030078c <prvProcessExpiredTimer+0x98>
8030073c:	e59d3014 	ldr	r3, [sp, #20]
80300740:	e5932018 	ldr	r2, [r3, #24]
80300744:	e59d300c 	ldr	r3, [sp, #12]
80300748:	e0823003 	add	r3, r2, r3
8030074c:	e59d0014 	ldr	r0, [sp, #20]
80300750:	e1a01003 	mov	r1, r3
80300754:	e59d2008 	ldr	r2, [sp, #8]
80300758:	e59d300c 	ldr	r3, [sp, #12]
8030075c:	eb000086 	bl	8030097c <prvInsertTimerInActiveList>
80300760:	e1a03000 	mov	r3, r0
80300764:	e3530001 	cmp	r3, #1
80300768:	1a000007 	bne	8030078c <prvProcessExpiredTimer+0x98>
8030076c:	e3a03000 	mov	r3, #0
80300770:	e58d3000 	str	r3, [sp]
80300774:	e59d0014 	ldr	r0, [sp, #20]
80300778:	e3a01000 	mov	r1, #0
8030077c:	e59d200c 	ldr	r2, [sp, #12]
80300780:	e3a03000 	mov	r3, #0
80300784:	ebffff9c 	bl	803005fc <xTimerGenericCommand>
80300788:	e58d0010 	str	r0, [sp, #16]
8030078c:	e59d3014 	ldr	r3, [sp, #20]
80300790:	e5933024 	ldr	r3, [r3, #36]	; 0x24
80300794:	e59d0014 	ldr	r0, [sp, #20]
80300798:	e12fff33 	blx	r3
8030079c:	e28dd01c 	add	sp, sp, #28
803007a0:	e8bd8000 	ldmfd	sp!, {pc}

803007a4 <prvTimerTask>:
803007a4:	e52de004 	push	{lr}		; (str lr, [sp, #-4]!)
803007a8:	e24dd014 	sub	sp, sp, #20
803007ac:	e58d0004 	str	r0, [sp, #4]
803007b0:	e28d3008 	add	r3, sp, #8
803007b4:	e1a00003 	mov	r0, r3
803007b8:	eb000032 	bl	80300888 <prvGetNextExpireTime>
803007bc:	e58d000c 	str	r0, [sp, #12]
803007c0:	e59d3008 	ldr	r3, [sp, #8]
803007c4:	e59d000c 	ldr	r0, [sp, #12]
803007c8:	e1a01003 	mov	r1, r3
803007cc:	eb000001 	bl	803007d8 <prvProcessTimerOrBlockTask>
803007d0:	eb0000a5 	bl	80300a6c <prvProcessReceivedCommands>
803007d4:	eafffff5 	b	803007b0 <prvTimerTask+0xc>

803007d8 <prvProcessTimerOrBlockTask>:
803007d8:	e52de004 	push	{lr}		; (str lr, [sp, #-4]!)
803007dc:	e24dd014 	sub	sp, sp, #20
803007e0:	e58d0004 	str	r0, [sp, #4]
803007e4:	e58d1000 	str	r1, [sp]
803007e8:	eb000460 	bl	80301970 <vTaskSuspendAll>
803007ec:	e28d3008 	add	r3, sp, #8
803007f0:	e1a00003 	mov	r0, r3
803007f4:	eb000041 	bl	80300900 <prvSampleTimeNow>
803007f8:	e58d000c 	str	r0, [sp, #12]
803007fc:	e59d3008 	ldr	r3, [sp, #8]
80300800:	e3530000 	cmp	r3, #0
80300804:	1a00001a 	bne	80300874 <prvProcessTimerOrBlockTask+0x9c>
80300808:	e59d3000 	ldr	r3, [sp]
8030080c:	e3530000 	cmp	r3, #0
80300810:	1a000008 	bne	80300838 <prvProcessTimerOrBlockTask+0x60>
80300814:	e59d2004 	ldr	r2, [sp, #4]
80300818:	e59d300c 	ldr	r3, [sp, #12]
8030081c:	e1520003 	cmp	r2, r3
80300820:	8a000004 	bhi	80300838 <prvProcessTimerOrBlockTask+0x60>
80300824:	eb000459 	bl	80301990 <xTaskResumeAll>
80300828:	e59d0004 	ldr	r0, [sp, #4]
8030082c:	e59d100c 	ldr	r1, [sp, #12]
80300830:	ebffffaf 	bl	803006f4 <prvProcessExpiredTimer>
80300834:	ea000011 	b	80300880 <prvProcessTimerOrBlockTask+0xa8>
80300838:	e3053ac0 	movw	r3, #23232	; 0x5ac0
8030083c:	e3483030 	movt	r3, #32816	; 0x8030
80300840:	e5932000 	ldr	r2, [r3]
80300844:	e59d1004 	ldr	r1, [sp, #4]
80300848:	e59d300c 	ldr	r3, [sp, #12]
8030084c:	e0633001 	rsb	r3, r3, r1
80300850:	e1a00002 	mov	r0, r2
80300854:	e1a01003 	mov	r1, r3
80300858:	eb000a50 	bl	803031a0 <vQueueWaitForMessageRestricted>
8030085c:	eb00044b 	bl	80301990 <xTaskResumeAll>
80300860:	e1a03000 	mov	r3, r0
80300864:	e3530000 	cmp	r3, #0
80300868:	1a000003 	bne	8030087c <prvProcessTimerOrBlockTask+0xa4>
8030086c:	ef000000 	svc	0x00000000
80300870:	ea000001 	b	8030087c <prvProcessTimerOrBlockTask+0xa4>
80300874:	eb000445 	bl	80301990 <xTaskResumeAll>
80300878:	ea000000 	b	80300880 <prvProcessTimerOrBlockTask+0xa8>
8030087c:	e1a00000 	nop			; (mov r0, r0)
80300880:	e28dd014 	add	sp, sp, #20
80300884:	e8bd8000 	ldmfd	sp!, {pc}

80300888 <prvGetNextExpireTime>:
80300888:	e24dd010 	sub	sp, sp, #16
8030088c:	e58d0004 	str	r0, [sp, #4]
80300890:	e3053ab8 	movw	r3, #23224	; 0x5ab8
80300894:	e3483030 	movt	r3, #32816	; 0x8030
80300898:	e5933000 	ldr	r3, [r3]
8030089c:	e5933000 	ldr	r3, [r3]
803008a0:	e3530000 	cmp	r3, #0
803008a4:	13a03000 	movne	r3, #0
803008a8:	03a03001 	moveq	r3, #1
803008ac:	e6ef3073 	uxtb	r3, r3
803008b0:	e1a02003 	mov	r2, r3
803008b4:	e59d3004 	ldr	r3, [sp, #4]
803008b8:	e5832000 	str	r2, [r3]
803008bc:	e59d3004 	ldr	r3, [sp, #4]
803008c0:	e5933000 	ldr	r3, [r3]
803008c4:	e3530000 	cmp	r3, #0
803008c8:	1a000006 	bne	803008e8 <prvGetNextExpireTime+0x60>
803008cc:	e3053ab8 	movw	r3, #23224	; 0x5ab8
803008d0:	e3483030 	movt	r3, #32816	; 0x8030
803008d4:	e5933000 	ldr	r3, [r3]
803008d8:	e593300c 	ldr	r3, [r3, #12]
803008dc:	e5933000 	ldr	r3, [r3]
803008e0:	e58d300c 	str	r3, [sp, #12]
803008e4:	ea000001 	b	803008f0 <prvGetNextExpireTime+0x68>
803008e8:	e3a03000 	mov	r3, #0
803008ec:	e58d300c 	str	r3, [sp, #12]
803008f0:	e59d300c 	ldr	r3, [sp, #12]
803008f4:	e1a00003 	mov	r0, r3
803008f8:	e28dd010 	add	sp, sp, #16
803008fc:	e12fff1e 	bx	lr

80300900 <prvSampleTimeNow>:
80300900:	e52de004 	push	{lr}		; (str lr, [sp, #-4]!)
80300904:	e24dd014 	sub	sp, sp, #20
80300908:	e58d0004 	str	r0, [sp, #4]
8030090c:	eb00048f 	bl	80301b50 <xTaskGetTickCount>
80300910:	e58d000c 	str	r0, [sp, #12]
80300914:	e3053ac4 	movw	r3, #23236	; 0x5ac4
80300918:	e3483030 	movt	r3, #32816	; 0x8030
8030091c:	e5933000 	ldr	r3, [r3]
80300920:	e59d200c 	ldr	r2, [sp, #12]
80300924:	e1520003 	cmp	r2, r3
80300928:	2a000008 	bcs	80300950 <prvSampleTimeNow+0x50>
8030092c:	e3053ac4 	movw	r3, #23236	; 0x5ac4
80300930:	e3483030 	movt	r3, #32816	; 0x8030
80300934:	e5933000 	ldr	r3, [r3]
80300938:	e1a00003 	mov	r0, r3
8030093c:	eb0000a8 	bl	80300be4 <prvSwitchTimerLists>
80300940:	e59d3004 	ldr	r3, [sp, #4]
80300944:	e3a02001 	mov	r2, #1
80300948:	e5832000 	str	r2, [r3]
8030094c:	ea000002 	b	8030095c <prvSampleTimeNow+0x5c>
80300950:	e59d3004 	ldr	r3, [sp, #4]
80300954:	e3a02000 	mov	r2, #0
80300958:	e5832000 	str	r2, [r3]
8030095c:	e3053ac4 	movw	r3, #23236	; 0x5ac4
80300960:	e3483030 	movt	r3, #32816	; 0x8030
80300964:	e59d200c 	ldr	r2, [sp, #12]
80300968:	e5832000 	str	r2, [r3]
8030096c:	e59d300c 	ldr	r3, [sp, #12]
80300970:	e1a00003 	mov	r0, r3
80300974:	e28dd014 	add	sp, sp, #20
80300978:	e8bd8000 	ldmfd	sp!, {pc}

8030097c <prvInsertTimerInActiveList>:
8030097c:	e52de004 	push	{lr}		; (str lr, [sp, #-4]!)
80300980:	e24dd01c 	sub	sp, sp, #28
80300984:	e58d000c 	str	r0, [sp, #12]
80300988:	e58d1008 	str	r1, [sp, #8]
8030098c:	e58d2004 	str	r2, [sp, #4]
80300990:	e58d3000 	str	r3, [sp]
80300994:	e3a03000 	mov	r3, #0
80300998:	e58d3014 	str	r3, [sp, #20]
8030099c:	e59d300c 	ldr	r3, [sp, #12]
803009a0:	e59d2008 	ldr	r2, [sp, #8]
803009a4:	e5832004 	str	r2, [r3, #4]
803009a8:	e59d300c 	ldr	r3, [sp, #12]
803009ac:	e59d200c 	ldr	r2, [sp, #12]
803009b0:	e5832010 	str	r2, [r3, #16]
803009b4:	e59d2008 	ldr	r2, [sp, #8]
803009b8:	e59d3004 	ldr	r3, [sp, #4]
803009bc:	e1520003 	cmp	r2, r3
803009c0:	8a000012 	bhi	80300a10 <prvInsertTimerInActiveList+0x94>
803009c4:	e59d2004 	ldr	r2, [sp, #4]
803009c8:	e59d3000 	ldr	r3, [sp]
803009cc:	e0632002 	rsb	r2, r3, r2
803009d0:	e59d300c 	ldr	r3, [sp, #12]
803009d4:	e5933018 	ldr	r3, [r3, #24]
803009d8:	e1520003 	cmp	r2, r3
803009dc:	3a000002 	bcc	803009ec <prvInsertTimerInActiveList+0x70>
803009e0:	e3a03001 	mov	r3, #1
803009e4:	e58d3014 	str	r3, [sp, #20]
803009e8:	ea00001b 	b	80300a5c <prvInsertTimerInActiveList+0xe0>
803009ec:	e3053abc 	movw	r3, #23228	; 0x5abc
803009f0:	e3483030 	movt	r3, #32816	; 0x8030
803009f4:	e5932000 	ldr	r2, [r3]
803009f8:	e59d300c 	ldr	r3, [sp, #12]
803009fc:	e2833004 	add	r3, r3, #4
80300a00:	e1a00002 	mov	r0, r2
80300a04:	e1a01003 	mov	r1, r3
80300a08:	eb000a44 	bl	80303320 <vListInsert>
80300a0c:	ea000012 	b	80300a5c <prvInsertTimerInActiveList+0xe0>
80300a10:	e59d2004 	ldr	r2, [sp, #4]
80300a14:	e59d3000 	ldr	r3, [sp]
80300a18:	e1520003 	cmp	r2, r3
80300a1c:	2a000006 	bcs	80300a3c <prvInsertTimerInActiveList+0xc0>
80300a20:	e59d2008 	ldr	r2, [sp, #8]
80300a24:	e59d3000 	ldr	r3, [sp]
80300a28:	e1520003 	cmp	r2, r3
80300a2c:	3a000002 	bcc	80300a3c <prvInsertTimerInActiveList+0xc0>
80300a30:	e3a03001 	mov	r3, #1
80300a34:	e58d3014 	str	r3, [sp, #20]
80300a38:	ea000007 	b	80300a5c <prvInsertTimerInActiveList+0xe0>
80300a3c:	e3053ab8 	movw	r3, #23224	; 0x5ab8
80300a40:	e3483030 	movt	r3, #32816	; 0x8030
80300a44:	e5932000 	ldr	r2, [r3]
80300a48:	e59d300c 	ldr	r3, [sp, #12]
80300a4c:	e2833004 	add	r3, r3, #4
80300a50:	e1a00002 	mov	r0, r2
80300a54:	e1a01003 	mov	r1, r3
80300a58:	eb000a30 	bl	80303320 <vListInsert>
80300a5c:	e59d3014 	ldr	r3, [sp, #20]
80300a60:	e1a00003 	mov	r0, r3
80300a64:	e28dd01c 	add	sp, sp, #28
80300a68:	e8bd8000 	ldmfd	sp!, {pc}

80300a6c <prvProcessReceivedCommands>:
80300a6c:	e52de004 	push	{lr}		; (str lr, [sp, #-4]!)
80300a70:	e24dd02c 	sub	sp, sp, #44	; 0x2c
80300a74:	e28d300c 	add	r3, sp, #12
80300a78:	e1a00003 	mov	r0, r3
80300a7c:	ebffff9f 	bl	80300900 <prvSampleTimeNow>
80300a80:	e58d0024 	str	r0, [sp, #36]	; 0x24
80300a84:	ea000048 	b	80300bac <prvProcessReceivedCommands+0x140>
80300a88:	e59d3018 	ldr	r3, [sp, #24]
80300a8c:	e58d3020 	str	r3, [sp, #32]
80300a90:	e59d3020 	ldr	r3, [sp, #32]
80300a94:	e3530000 	cmp	r3, #0
80300a98:	0a000007 	beq	80300abc <prvProcessReceivedCommands+0x50>
80300a9c:	e59d3020 	ldr	r3, [sp, #32]
80300aa0:	e5933014 	ldr	r3, [r3, #20]
80300aa4:	e3530000 	cmp	r3, #0
80300aa8:	0a000003 	beq	80300abc <prvProcessReceivedCommands+0x50>
80300aac:	e59d3020 	ldr	r3, [sp, #32]
80300ab0:	e2833004 	add	r3, r3, #4
80300ab4:	e1a00003 	mov	r0, r3
80300ab8:	eb000a4a 	bl	803033e8 <vListRemove>
80300abc:	e59d3010 	ldr	r3, [sp, #16]
80300ac0:	e3530003 	cmp	r3, #3
80300ac4:	979ff103 	ldrls	pc, [pc, r3, lsl #2]
80300ac8:	ea000034 	b	80300ba0 <prvProcessReceivedCommands+0x134>
80300acc:	80300adc 	.word	0x80300adc
80300ad0:	80300ba0 	.word	0x80300ba0
80300ad4:	80300b60 	.word	0x80300b60
80300ad8:	80300b94 	.word	0x80300b94
80300adc:	e59d2014 	ldr	r2, [sp, #20]
80300ae0:	e59d3020 	ldr	r3, [sp, #32]
80300ae4:	e5933018 	ldr	r3, [r3, #24]
80300ae8:	e0822003 	add	r2, r2, r3
80300aec:	e59d3014 	ldr	r3, [sp, #20]
80300af0:	e59d0020 	ldr	r0, [sp, #32]
80300af4:	e1a01002 	mov	r1, r2
80300af8:	e59d2024 	ldr	r2, [sp, #36]	; 0x24
80300afc:	ebffff9e 	bl	8030097c <prvInsertTimerInActiveList>
80300b00:	e1a03000 	mov	r3, r0
80300b04:	e3530001 	cmp	r3, #1
80300b08:	1a000026 	bne	80300ba8 <prvProcessReceivedCommands+0x13c>
80300b0c:	e59d3020 	ldr	r3, [sp, #32]
80300b10:	e5933024 	ldr	r3, [r3, #36]	; 0x24
80300b14:	e59d0020 	ldr	r0, [sp, #32]
80300b18:	e12fff33 	blx	r3
80300b1c:	e59d3020 	ldr	r3, [sp, #32]
80300b20:	e593301c 	ldr	r3, [r3, #28]
80300b24:	e3530001 	cmp	r3, #1
80300b28:	1a00001e 	bne	80300ba8 <prvProcessReceivedCommands+0x13c>
80300b2c:	e59d2014 	ldr	r2, [sp, #20]
80300b30:	e59d3020 	ldr	r3, [sp, #32]
80300b34:	e5933018 	ldr	r3, [r3, #24]
80300b38:	e0823003 	add	r3, r2, r3
80300b3c:	e3a02000 	mov	r2, #0
80300b40:	e58d2000 	str	r2, [sp]
80300b44:	e59d0020 	ldr	r0, [sp, #32]
80300b48:	e3a01000 	mov	r1, #0
80300b4c:	e1a02003 	mov	r2, r3
80300b50:	e3a03000 	mov	r3, #0
80300b54:	ebfffea8 	bl	803005fc <xTimerGenericCommand>
80300b58:	e58d001c 	str	r0, [sp, #28]
80300b5c:	ea000011 	b	80300ba8 <prvProcessReceivedCommands+0x13c>
80300b60:	e59d2014 	ldr	r2, [sp, #20]
80300b64:	e59d3020 	ldr	r3, [sp, #32]
80300b68:	e5832018 	str	r2, [r3, #24]
80300b6c:	e59d3020 	ldr	r3, [sp, #32]
80300b70:	e5932018 	ldr	r2, [r3, #24]
80300b74:	e59d3024 	ldr	r3, [sp, #36]	; 0x24
80300b78:	e0823003 	add	r3, r2, r3
80300b7c:	e59d0020 	ldr	r0, [sp, #32]
80300b80:	e1a01003 	mov	r1, r3
80300b84:	e59d2024 	ldr	r2, [sp, #36]	; 0x24
80300b88:	e59d3024 	ldr	r3, [sp, #36]	; 0x24
80300b8c:	ebffff7a 	bl	8030097c <prvInsertTimerInActiveList>
80300b90:	ea000005 	b	80300bac <prvProcessReceivedCommands+0x140>
80300b94:	e59d0020 	ldr	r0, [sp, #32]
80300b98:	eb000ad8 	bl	80303700 <vPortFree>
80300b9c:	ea000002 	b	80300bac <prvProcessReceivedCommands+0x140>
80300ba0:	e1a00000 	nop			; (mov r0, r0)
80300ba4:	ea000000 	b	80300bac <prvProcessReceivedCommands+0x140>
80300ba8:	e1a00000 	nop			; (mov r0, r0)
80300bac:	e3053ac0 	movw	r3, #23232	; 0x5ac0
80300bb0:	e3483030 	movt	r3, #32816	; 0x8030
80300bb4:	e5932000 	ldr	r2, [r3]
80300bb8:	e28d3010 	add	r3, sp, #16
80300bbc:	e1a00002 	mov	r0, r2
80300bc0:	e1a01003 	mov	r1, r3
80300bc4:	e3a02000 	mov	r2, #0
80300bc8:	e3a03000 	mov	r3, #0
80300bcc:	eb0007b2 	bl	80302a9c <xQueueGenericReceive>
80300bd0:	e1a03000 	mov	r3, r0
80300bd4:	e3530000 	cmp	r3, #0
80300bd8:	1affffaa 	bne	80300a88 <prvProcessReceivedCommands+0x1c>
80300bdc:	e28dd02c 	add	sp, sp, #44	; 0x2c
80300be0:	e8bd8000 	ldmfd	sp!, {pc}

80300be4 <prvSwitchTimerLists>:
80300be4:	e52de004 	push	{lr}		; (str lr, [sp, #-4]!)
80300be8:	e24dd02c 	sub	sp, sp, #44	; 0x2c
80300bec:	e58d000c 	str	r0, [sp, #12]
80300bf0:	ea000037 	b	80300cd4 <prvSwitchTimerLists+0xf0>
80300bf4:	e3053ab8 	movw	r3, #23224	; 0x5ab8
80300bf8:	e3483030 	movt	r3, #32816	; 0x8030
80300bfc:	e5933000 	ldr	r3, [r3]
80300c00:	e593300c 	ldr	r3, [r3, #12]
80300c04:	e5933000 	ldr	r3, [r3]
80300c08:	e58d3024 	str	r3, [sp, #36]	; 0x24
80300c0c:	e3053ab8 	movw	r3, #23224	; 0x5ab8
80300c10:	e3483030 	movt	r3, #32816	; 0x8030
80300c14:	e5933000 	ldr	r3, [r3]
80300c18:	e593300c 	ldr	r3, [r3, #12]
80300c1c:	e593300c 	ldr	r3, [r3, #12]
80300c20:	e58d3020 	str	r3, [sp, #32]
80300c24:	e59d3020 	ldr	r3, [sp, #32]
80300c28:	e2833004 	add	r3, r3, #4
80300c2c:	e1a00003 	mov	r0, r3
80300c30:	eb0009ec 	bl	803033e8 <vListRemove>
80300c34:	e59d3020 	ldr	r3, [sp, #32]
80300c38:	e5933024 	ldr	r3, [r3, #36]	; 0x24
80300c3c:	e59d0020 	ldr	r0, [sp, #32]
80300c40:	e12fff33 	blx	r3
80300c44:	e59d3020 	ldr	r3, [sp, #32]
80300c48:	e593301c 	ldr	r3, [r3, #28]
80300c4c:	e3530001 	cmp	r3, #1
80300c50:	1a00001f 	bne	80300cd4 <prvSwitchTimerLists+0xf0>
80300c54:	e59d3020 	ldr	r3, [sp, #32]
80300c58:	e5932018 	ldr	r2, [r3, #24]
80300c5c:	e59d3024 	ldr	r3, [sp, #36]	; 0x24
80300c60:	e0823003 	add	r3, r2, r3
80300c64:	e58d301c 	str	r3, [sp, #28]
80300c68:	e59d201c 	ldr	r2, [sp, #28]
80300c6c:	e59d3024 	ldr	r3, [sp, #36]	; 0x24
80300c70:	e1520003 	cmp	r2, r3
80300c74:	9a00000e 	bls	80300cb4 <prvSwitchTimerLists+0xd0>
80300c78:	e59d3020 	ldr	r3, [sp, #32]
80300c7c:	e59d201c 	ldr	r2, [sp, #28]
80300c80:	e5832004 	str	r2, [r3, #4]
80300c84:	e59d3020 	ldr	r3, [sp, #32]
80300c88:	e59d2020 	ldr	r2, [sp, #32]
80300c8c:	e5832010 	str	r2, [r3, #16]
80300c90:	e3053ab8 	movw	r3, #23224	; 0x5ab8
80300c94:	e3483030 	movt	r3, #32816	; 0x8030
80300c98:	e5932000 	ldr	r2, [r3]
80300c9c:	e59d3020 	ldr	r3, [sp, #32]
80300ca0:	e2833004 	add	r3, r3, #4
80300ca4:	e1a00002 	mov	r0, r2
80300ca8:	e1a01003 	mov	r1, r3
80300cac:	eb00099b 	bl	80303320 <vListInsert>
80300cb0:	ea000007 	b	80300cd4 <prvSwitchTimerLists+0xf0>
80300cb4:	e3a03000 	mov	r3, #0
80300cb8:	e58d3000 	str	r3, [sp]
80300cbc:	e59d0020 	ldr	r0, [sp, #32]
80300cc0:	e3a01000 	mov	r1, #0
80300cc4:	e59d2024 	ldr	r2, [sp, #36]	; 0x24
80300cc8:	e3a03000 	mov	r3, #0
80300ccc:	ebfffe4a 	bl	803005fc <xTimerGenericCommand>
80300cd0:	e58d0018 	str	r0, [sp, #24]
80300cd4:	e3053ab8 	movw	r3, #23224	; 0x5ab8
80300cd8:	e3483030 	movt	r3, #32816	; 0x8030
80300cdc:	e5933000 	ldr	r3, [r3]
80300ce0:	e5933000 	ldr	r3, [r3]
80300ce4:	e3530000 	cmp	r3, #0
80300ce8:	1affffc1 	bne	80300bf4 <prvSwitchTimerLists+0x10>
80300cec:	e3053ab8 	movw	r3, #23224	; 0x5ab8
80300cf0:	e3483030 	movt	r3, #32816	; 0x8030
80300cf4:	e5933000 	ldr	r3, [r3]
80300cf8:	e58d3014 	str	r3, [sp, #20]
80300cfc:	e3053abc 	movw	r3, #23228	; 0x5abc
80300d00:	e3483030 	movt	r3, #32816	; 0x8030
80300d04:	e5932000 	ldr	r2, [r3]
80300d08:	e3053ab8 	movw	r3, #23224	; 0x5ab8
80300d0c:	e3483030 	movt	r3, #32816	; 0x8030
80300d10:	e5832000 	str	r2, [r3]
80300d14:	e3053abc 	movw	r3, #23228	; 0x5abc
80300d18:	e3483030 	movt	r3, #32816	; 0x8030
80300d1c:	e59d2014 	ldr	r2, [sp, #20]
80300d20:	e5832000 	str	r2, [r3]
80300d24:	e28dd02c 	add	sp, sp, #44	; 0x2c
80300d28:	e8bd8000 	ldmfd	sp!, {pc}

80300d2c <prvCheckForValidListAndQueue>:
80300d2c:	e92d4008 	push	{r3, lr}
80300d30:	ebfffd44 	bl	80300248 <vPortEnterCritical>
80300d34:	e3053ac0 	movw	r3, #23232	; 0x5ac0
80300d38:	e3483030 	movt	r3, #32816	; 0x8030
80300d3c:	e5933000 	ldr	r3, [r3]
80300d40:	e3530000 	cmp	r3, #0
80300d44:	1a000016 	bne	80300da4 <prvCheckForValidListAndQueue+0x78>
80300d48:	e3050a90 	movw	r0, #23184	; 0x5a90
80300d4c:	e3480030 	movt	r0, #32816	; 0x8030
80300d50:	eb000933 	bl	80303224 <vListInitialise>
80300d54:	e3050aa4 	movw	r0, #23204	; 0x5aa4
80300d58:	e3480030 	movt	r0, #32816	; 0x8030
80300d5c:	eb000930 	bl	80303224 <vListInitialise>
80300d60:	e3053ab8 	movw	r3, #23224	; 0x5ab8
80300d64:	e3483030 	movt	r3, #32816	; 0x8030
80300d68:	e3052a90 	movw	r2, #23184	; 0x5a90
80300d6c:	e3482030 	movt	r2, #32816	; 0x8030
80300d70:	e5832000 	str	r2, [r3]
80300d74:	e3053abc 	movw	r3, #23228	; 0x5abc
80300d78:	e3483030 	movt	r3, #32816	; 0x8030
80300d7c:	e3052aa4 	movw	r2, #23204	; 0x5aa4
80300d80:	e3482030 	movt	r2, #32816	; 0x8030
80300d84:	e5832000 	str	r2, [r3]
80300d88:	e3a00005 	mov	r0, #5
80300d8c:	e3a0100c 	mov	r1, #12
80300d90:	eb000652 	bl	803026e0 <xQueueCreate>
80300d94:	e1a02000 	mov	r2, r0
80300d98:	e3053ac0 	movw	r3, #23232	; 0x5ac0
80300d9c:	e3483030 	movt	r3, #32816	; 0x8030
80300da0:	e5832000 	str	r2, [r3]
80300da4:	ebfffd34 	bl	8030027c <vPortExitCritical>
80300da8:	e8bd8008 	pop	{r3, pc}

80300dac <xTimerIsTimerActive>:
80300dac:	e52de004 	push	{lr}		; (str lr, [sp, #-4]!)
80300db0:	e24dd014 	sub	sp, sp, #20
80300db4:	e58d0004 	str	r0, [sp, #4]
80300db8:	e59d3004 	ldr	r3, [sp, #4]
80300dbc:	e58d300c 	str	r3, [sp, #12]
80300dc0:	ebfffd20 	bl	80300248 <vPortEnterCritical>
80300dc4:	e59d300c 	ldr	r3, [sp, #12]
80300dc8:	e5933014 	ldr	r3, [r3, #20]
80300dcc:	e3530000 	cmp	r3, #0
80300dd0:	03a03000 	moveq	r3, #0
80300dd4:	13a03001 	movne	r3, #1
80300dd8:	e6ef3073 	uxtb	r3, r3
80300ddc:	e58d3008 	str	r3, [sp, #8]
80300de0:	ebfffd25 	bl	8030027c <vPortExitCritical>
80300de4:	e59d3008 	ldr	r3, [sp, #8]
80300de8:	e1a00003 	mov	r0, r3
80300dec:	e28dd014 	add	sp, sp, #20
80300df0:	e8bd8000 	ldmfd	sp!, {pc}

80300df4 <pvTimerGetTimerID>:
80300df4:	e24dd010 	sub	sp, sp, #16
80300df8:	e58d0004 	str	r0, [sp, #4]
80300dfc:	e59d3004 	ldr	r3, [sp, #4]
80300e00:	e58d300c 	str	r3, [sp, #12]
80300e04:	e59d300c 	ldr	r3, [sp, #12]
80300e08:	e5933020 	ldr	r3, [r3, #32]
80300e0c:	e1a00003 	mov	r0, r3
80300e10:	e28dd010 	add	sp, sp, #16
80300e14:	e12fff1e 	bx	lr

80300e18 <xTaskGenericCreate>:
80300e18:	e52de004 	push	{lr}		; (str lr, [sp, #-4]!)
80300e1c:	e24dd02c 	sub	sp, sp, #44	; 0x2c
80300e20:	e58d0014 	str	r0, [sp, #20]
80300e24:	e58d1010 	str	r1, [sp, #16]
80300e28:	e58d3008 	str	r3, [sp, #8]
80300e2c:	e1cd20be 	strh	r2, [sp, #14]
80300e30:	e1dd30be 	ldrh	r3, [sp, #14]
80300e34:	e1a00003 	mov	r0, r3
80300e38:	e59d1038 	ldr	r1, [sp, #56]	; 0x38
80300e3c:	eb0005d9 	bl	803025a8 <prvAllocateTCBAndStack>
80300e40:	e58d0020 	str	r0, [sp, #32]
80300e44:	e59d3020 	ldr	r3, [sp, #32]
80300e48:	e3530000 	cmp	r3, #0
80300e4c:	0a000076 	beq	8030102c <xTaskGenericCreate+0x214>
80300e50:	e59d3020 	ldr	r3, [sp, #32]
80300e54:	e5932030 	ldr	r2, [r3, #48]	; 0x30
80300e58:	e1dd30be 	ldrh	r3, [sp, #14]
80300e5c:	e2433001 	sub	r3, r3, #1
80300e60:	e1a03103 	lsl	r3, r3, #2
80300e64:	e0823003 	add	r3, r2, r3
80300e68:	e58d301c 	str	r3, [sp, #28]
80300e6c:	e59d301c 	ldr	r3, [sp, #28]
80300e70:	e3c33007 	bic	r3, r3, #7
80300e74:	e58d301c 	str	r3, [sp, #28]
80300e78:	e1dd30be 	ldrh	r3, [sp, #14]
80300e7c:	e58d3000 	str	r3, [sp]
80300e80:	e59d0020 	ldr	r0, [sp, #32]
80300e84:	e59d1010 	ldr	r1, [sp, #16]
80300e88:	e59d2030 	ldr	r2, [sp, #48]	; 0x30
80300e8c:	e59d303c 	ldr	r3, [sp, #60]	; 0x3c
80300e90:	eb000509 	bl	803022bc <prvInitialiseTCBVariables>
80300e94:	e59d001c 	ldr	r0, [sp, #28]
80300e98:	e59d1014 	ldr	r1, [sp, #20]
80300e9c:	e59d2008 	ldr	r2, [sp, #8]
80300ea0:	eb000a51 	bl	803037ec <pxPortInitialiseStack>
80300ea4:	e1a02000 	mov	r2, r0
80300ea8:	e59d3020 	ldr	r3, [sp, #32]
80300eac:	e5832000 	str	r2, [r3]
80300eb0:	e59d3034 	ldr	r3, [sp, #52]	; 0x34
80300eb4:	e3530000 	cmp	r3, #0
80300eb8:	0a000002 	beq	80300ec8 <xTaskGenericCreate+0xb0>
80300ebc:	e59d3034 	ldr	r3, [sp, #52]	; 0x34
80300ec0:	e59d2020 	ldr	r2, [sp, #32]
80300ec4:	e5832000 	str	r2, [r3]
80300ec8:	ebfffcde 	bl	80300248 <vPortEnterCritical>
80300ecc:	e3053ba0 	movw	r3, #23456	; 0x5ba0
80300ed0:	e3483030 	movt	r3, #32816	; 0x8030
80300ed4:	e5933000 	ldr	r3, [r3]
80300ed8:	e2832001 	add	r2, r3, #1
80300edc:	e3053ba0 	movw	r3, #23456	; 0x5ba0
80300ee0:	e3483030 	movt	r3, #32816	; 0x8030
80300ee4:	e5832000 	str	r2, [r3]
80300ee8:	e3053ac8 	movw	r3, #23240	; 0x5ac8
80300eec:	e3483030 	movt	r3, #32816	; 0x8030
80300ef0:	e5933000 	ldr	r3, [r3]
80300ef4:	e3530000 	cmp	r3, #0
80300ef8:	1a00000a 	bne	80300f28 <xTaskGenericCreate+0x110>
80300efc:	e3053ac8 	movw	r3, #23240	; 0x5ac8
80300f00:	e3483030 	movt	r3, #32816	; 0x8030
80300f04:	e59d2020 	ldr	r2, [sp, #32]
80300f08:	e5832000 	str	r2, [r3]
80300f0c:	e3053ba0 	movw	r3, #23456	; 0x5ba0
80300f10:	e3483030 	movt	r3, #32816	; 0x8030
80300f14:	e5933000 	ldr	r3, [r3]
80300f18:	e3530001 	cmp	r3, #1
80300f1c:	1a000011 	bne	80300f68 <xTaskGenericCreate+0x150>
80300f20:	eb000510 	bl	80302368 <prvInitialiseTaskLists>
80300f24:	ea00000f 	b	80300f68 <xTaskGenericCreate+0x150>
80300f28:	e3053bb0 	movw	r3, #23472	; 0x5bb0
80300f2c:	e3483030 	movt	r3, #32816	; 0x8030
80300f30:	e5933000 	ldr	r3, [r3]
80300f34:	e3530000 	cmp	r3, #0
80300f38:	1a00000a 	bne	80300f68 <xTaskGenericCreate+0x150>
80300f3c:	e3053ac8 	movw	r3, #23240	; 0x5ac8
80300f40:	e3483030 	movt	r3, #32816	; 0x8030
80300f44:	e5933000 	ldr	r3, [r3]
80300f48:	e593202c 	ldr	r2, [r3, #44]	; 0x2c
80300f4c:	e59d3030 	ldr	r3, [sp, #48]	; 0x30
80300f50:	e1520003 	cmp	r2, r3
80300f54:	8a000003 	bhi	80300f68 <xTaskGenericCreate+0x150>
80300f58:	e3053ac8 	movw	r3, #23240	; 0x5ac8
80300f5c:	e3483030 	movt	r3, #32816	; 0x8030
80300f60:	e59d2020 	ldr	r2, [sp, #32]
80300f64:	e5832000 	str	r2, [r3]
80300f68:	e59d3020 	ldr	r3, [sp, #32]
80300f6c:	e593202c 	ldr	r2, [r3, #44]	; 0x2c
80300f70:	e3053ba8 	movw	r3, #23464	; 0x5ba8
80300f74:	e3483030 	movt	r3, #32816	; 0x8030
80300f78:	e5933000 	ldr	r3, [r3]
80300f7c:	e1520003 	cmp	r2, r3
80300f80:	9a000004 	bls	80300f98 <xTaskGenericCreate+0x180>
80300f84:	e59d3020 	ldr	r3, [sp, #32]
80300f88:	e593202c 	ldr	r2, [r3, #44]	; 0x2c
80300f8c:	e3053ba8 	movw	r3, #23464	; 0x5ba8
80300f90:	e3483030 	movt	r3, #32816	; 0x8030
80300f94:	e5832000 	str	r2, [r3]
80300f98:	e3053bc4 	movw	r3, #23492	; 0x5bc4
80300f9c:	e3483030 	movt	r3, #32816	; 0x8030
80300fa0:	e5933000 	ldr	r3, [r3]
80300fa4:	e2832001 	add	r2, r3, #1
80300fa8:	e3053bc4 	movw	r3, #23492	; 0x5bc4
80300fac:	e3483030 	movt	r3, #32816	; 0x8030
80300fb0:	e5832000 	str	r2, [r3]
80300fb4:	e59d3020 	ldr	r3, [sp, #32]
80300fb8:	e593202c 	ldr	r2, [r3, #44]	; 0x2c
80300fbc:	e3053bac 	movw	r3, #23468	; 0x5bac
80300fc0:	e3483030 	movt	r3, #32816	; 0x8030
80300fc4:	e5933000 	ldr	r3, [r3]
80300fc8:	e1520003 	cmp	r2, r3
80300fcc:	9a000004 	bls	80300fe4 <xTaskGenericCreate+0x1cc>
80300fd0:	e59d3020 	ldr	r3, [sp, #32]
80300fd4:	e593202c 	ldr	r2, [r3, #44]	; 0x2c
80300fd8:	e3053bac 	movw	r3, #23468	; 0x5bac
80300fdc:	e3483030 	movt	r3, #32816	; 0x8030
80300fe0:	e5832000 	str	r2, [r3]
80300fe4:	e59d3020 	ldr	r3, [sp, #32]
80300fe8:	e593202c 	ldr	r2, [r3, #44]	; 0x2c
80300fec:	e1a03002 	mov	r3, r2
80300ff0:	e1a03103 	lsl	r3, r3, #2
80300ff4:	e0833002 	add	r3, r3, r2
80300ff8:	e1a03103 	lsl	r3, r3, #2
80300ffc:	e3052acc 	movw	r2, #23244	; 0x5acc
80301000:	e3482030 	movt	r2, #32816	; 0x8030
80301004:	e0832002 	add	r2, r3, r2
80301008:	e59d3020 	ldr	r3, [sp, #32]
8030100c:	e2833004 	add	r3, r3, #4
80301010:	e1a00002 	mov	r0, r2
80301014:	e1a01003 	mov	r1, r3
80301018:	eb00089e 	bl	80303298 <vListInsertEnd>
8030101c:	e3a03001 	mov	r3, #1
80301020:	e58d3024 	str	r3, [sp, #36]	; 0x24
80301024:	ebfffc94 	bl	8030027c <vPortExitCritical>
80301028:	ea000001 	b	80301034 <xTaskGenericCreate+0x21c>
8030102c:	e3e03000 	mvn	r3, #0
80301030:	e58d3024 	str	r3, [sp, #36]	; 0x24
80301034:	e59d3024 	ldr	r3, [sp, #36]	; 0x24
80301038:	e3530001 	cmp	r3, #1
8030103c:	1a00000c 	bne	80301074 <xTaskGenericCreate+0x25c>
80301040:	e3053bb0 	movw	r3, #23472	; 0x5bb0
80301044:	e3483030 	movt	r3, #32816	; 0x8030
80301048:	e5933000 	ldr	r3, [r3]
8030104c:	e3530000 	cmp	r3, #0
80301050:	0a000007 	beq	80301074 <xTaskGenericCreate+0x25c>
80301054:	e3053ac8 	movw	r3, #23240	; 0x5ac8
80301058:	e3483030 	movt	r3, #32816	; 0x8030
8030105c:	e5933000 	ldr	r3, [r3]
80301060:	e593202c 	ldr	r2, [r3, #44]	; 0x2c
80301064:	e59d3030 	ldr	r3, [sp, #48]	; 0x30
80301068:	e1520003 	cmp	r2, r3
8030106c:	2a000000 	bcs	80301074 <xTaskGenericCreate+0x25c>
80301070:	ef000000 	svc	0x00000000
80301074:	e59d3024 	ldr	r3, [sp, #36]	; 0x24
80301078:	e1a00003 	mov	r0, r3
8030107c:	e28dd02c 	add	sp, sp, #44	; 0x2c
80301080:	e8bd8000 	ldmfd	sp!, {pc}

80301084 <vTaskDelete>:
80301084:	e52de004 	push	{lr}		; (str lr, [sp, #-4]!)
80301088:	e24dd014 	sub	sp, sp, #20
8030108c:	e58d0004 	str	r0, [sp, #4]
80301090:	ebfffc6c 	bl	80300248 <vPortEnterCritical>
80301094:	e3053ac8 	movw	r3, #23240	; 0x5ac8
80301098:	e3483030 	movt	r3, #32816	; 0x8030
8030109c:	e5933000 	ldr	r3, [r3]
803010a0:	e59d2004 	ldr	r2, [sp, #4]
803010a4:	e1520003 	cmp	r2, r3
803010a8:	1a000001 	bne	803010b4 <vTaskDelete+0x30>
803010ac:	e3a03000 	mov	r3, #0
803010b0:	e58d3004 	str	r3, [sp, #4]
803010b4:	e59d3004 	ldr	r3, [sp, #4]
803010b8:	e3530000 	cmp	r3, #0
803010bc:	1a000003 	bne	803010d0 <vTaskDelete+0x4c>
803010c0:	e3053ac8 	movw	r3, #23240	; 0x5ac8
803010c4:	e3483030 	movt	r3, #32816	; 0x8030
803010c8:	e5933000 	ldr	r3, [r3]
803010cc:	ea000000 	b	803010d4 <vTaskDelete+0x50>
803010d0:	e59d3004 	ldr	r3, [sp, #4]
803010d4:	e58d300c 	str	r3, [sp, #12]
803010d8:	e59d300c 	ldr	r3, [sp, #12]
803010dc:	e2833004 	add	r3, r3, #4
803010e0:	e1a00003 	mov	r0, r3
803010e4:	eb0008bf 	bl	803033e8 <vListRemove>
803010e8:	e59d300c 	ldr	r3, [sp, #12]
803010ec:	e5933028 	ldr	r3, [r3, #40]	; 0x28
803010f0:	e3530000 	cmp	r3, #0
803010f4:	0a000003 	beq	80301108 <vTaskDelete+0x84>
803010f8:	e59d300c 	ldr	r3, [sp, #12]
803010fc:	e2833018 	add	r3, r3, #24
80301100:	e1a00003 	mov	r0, r3
80301104:	eb0008b7 	bl	803033e8 <vListRemove>
80301108:	e59d300c 	ldr	r3, [sp, #12]
8030110c:	e2833004 	add	r3, r3, #4
80301110:	e3050b74 	movw	r0, #23412	; 0x5b74
80301114:	e3480030 	movt	r0, #32816	; 0x8030
80301118:	e1a01003 	mov	r1, r3
8030111c:	eb00085d 	bl	80303298 <vListInsertEnd>
80301120:	e3053b88 	movw	r3, #23432	; 0x5b88
80301124:	e3483030 	movt	r3, #32816	; 0x8030
80301128:	e5933000 	ldr	r3, [r3]
8030112c:	e2832001 	add	r2, r3, #1
80301130:	e3053b88 	movw	r3, #23432	; 0x5b88
80301134:	e3483030 	movt	r3, #32816	; 0x8030
80301138:	e5832000 	str	r2, [r3]
8030113c:	e3053bc4 	movw	r3, #23492	; 0x5bc4
80301140:	e3483030 	movt	r3, #32816	; 0x8030
80301144:	e5933000 	ldr	r3, [r3]
80301148:	e2832001 	add	r2, r3, #1
8030114c:	e3053bc4 	movw	r3, #23492	; 0x5bc4
80301150:	e3483030 	movt	r3, #32816	; 0x8030
80301154:	e5832000 	str	r2, [r3]
80301158:	ebfffc47 	bl	8030027c <vPortExitCritical>
8030115c:	e3053bb0 	movw	r3, #23472	; 0x5bb0
80301160:	e3483030 	movt	r3, #32816	; 0x8030
80301164:	e5933000 	ldr	r3, [r3]
80301168:	e3530000 	cmp	r3, #0
8030116c:	0a000003 	beq	80301180 <vTaskDelete+0xfc>
80301170:	e59d3004 	ldr	r3, [sp, #4]
80301174:	e3530000 	cmp	r3, #0
80301178:	1a000000 	bne	80301180 <vTaskDelete+0xfc>
8030117c:	ef000000 	svc	0x00000000
80301180:	e28dd014 	add	sp, sp, #20
80301184:	e8bd8000 	ldmfd	sp!, {pc}

80301188 <vTaskDelayUntil>:
80301188:	e52de004 	push	{lr}		; (str lr, [sp, #-4]!)
8030118c:	e24dd01c 	sub	sp, sp, #28
80301190:	e58d0004 	str	r0, [sp, #4]
80301194:	e58d1000 	str	r1, [sp]
80301198:	e3a03000 	mov	r3, #0
8030119c:	e58d3014 	str	r3, [sp, #20]
803011a0:	eb0001f2 	bl	80301970 <vTaskSuspendAll>
803011a4:	e59d3004 	ldr	r3, [sp, #4]
803011a8:	e5932000 	ldr	r2, [r3]
803011ac:	e59d3000 	ldr	r3, [sp]
803011b0:	e0823003 	add	r3, r2, r3
803011b4:	e58d3010 	str	r3, [sp, #16]
803011b8:	e59d3004 	ldr	r3, [sp, #4]
803011bc:	e5932000 	ldr	r2, [r3]
803011c0:	e3053ba4 	movw	r3, #23460	; 0x5ba4
803011c4:	e3483030 	movt	r3, #32816	; 0x8030
803011c8:	e5933000 	ldr	r3, [r3]
803011cc:	e1520003 	cmp	r2, r3
803011d0:	9a00000d 	bls	8030120c <vTaskDelayUntil+0x84>
803011d4:	e59d3004 	ldr	r3, [sp, #4]
803011d8:	e5932000 	ldr	r2, [r3]
803011dc:	e59d3010 	ldr	r3, [sp, #16]
803011e0:	e1520003 	cmp	r2, r3
803011e4:	9a000015 	bls	80301240 <vTaskDelayUntil+0xb8>
803011e8:	e3053ba4 	movw	r3, #23460	; 0x5ba4
803011ec:	e3483030 	movt	r3, #32816	; 0x8030
803011f0:	e5933000 	ldr	r3, [r3]
803011f4:	e59d2010 	ldr	r2, [sp, #16]
803011f8:	e1520003 	cmp	r2, r3
803011fc:	9a00000f 	bls	80301240 <vTaskDelayUntil+0xb8>
80301200:	e3a03001 	mov	r3, #1
80301204:	e58d3014 	str	r3, [sp, #20]
80301208:	ea00000c 	b	80301240 <vTaskDelayUntil+0xb8>
8030120c:	e59d3004 	ldr	r3, [sp, #4]
80301210:	e5932000 	ldr	r2, [r3]
80301214:	e59d3010 	ldr	r3, [sp, #16]
80301218:	e1520003 	cmp	r2, r3
8030121c:	8a000005 	bhi	80301238 <vTaskDelayUntil+0xb0>
80301220:	e3053ba4 	movw	r3, #23460	; 0x5ba4
80301224:	e3483030 	movt	r3, #32816	; 0x8030
80301228:	e5933000 	ldr	r3, [r3]
8030122c:	e59d2010 	ldr	r2, [sp, #16]
80301230:	e1520003 	cmp	r2, r3
80301234:	9a000001 	bls	80301240 <vTaskDelayUntil+0xb8>
80301238:	e3a03001 	mov	r3, #1
8030123c:	e58d3014 	str	r3, [sp, #20]
80301240:	e59d3004 	ldr	r3, [sp, #4]
80301244:	e59d2010 	ldr	r2, [sp, #16]
80301248:	e5832000 	str	r2, [r3]
8030124c:	e59d3014 	ldr	r3, [sp, #20]
80301250:	e3530000 	cmp	r3, #0
80301254:	0a000007 	beq	80301278 <vTaskDelayUntil+0xf0>
80301258:	e3053ac8 	movw	r3, #23240	; 0x5ac8
8030125c:	e3483030 	movt	r3, #32816	; 0x8030
80301260:	e5933000 	ldr	r3, [r3]
80301264:	e2833004 	add	r3, r3, #4
80301268:	e1a00003 	mov	r0, r3
8030126c:	eb00085d 	bl	803033e8 <vListRemove>
80301270:	e59d0010 	ldr	r0, [sp, #16]
80301274:	eb00049c 	bl	803024ec <prvAddCurrentTaskToDelayedList>
80301278:	eb0001c4 	bl	80301990 <xTaskResumeAll>
8030127c:	e58d000c 	str	r0, [sp, #12]
80301280:	e59d300c 	ldr	r3, [sp, #12]
80301284:	e3530000 	cmp	r3, #0
80301288:	1a000000 	bne	80301290 <vTaskDelayUntil+0x108>
8030128c:	ef000000 	svc	0x00000000
80301290:	e28dd01c 	add	sp, sp, #28
80301294:	e8bd8000 	ldmfd	sp!, {pc}

80301298 <vTaskDelay>:
80301298:	e52de004 	push	{lr}		; (str lr, [sp, #-4]!)
8030129c:	e24dd014 	sub	sp, sp, #20
803012a0:	e58d0004 	str	r0, [sp, #4]
803012a4:	e3a03000 	mov	r3, #0
803012a8:	e58d300c 	str	r3, [sp, #12]
803012ac:	e59d3004 	ldr	r3, [sp, #4]
803012b0:	e3530000 	cmp	r3, #0
803012b4:	0a000010 	beq	803012fc <vTaskDelay+0x64>
803012b8:	eb0001ac 	bl	80301970 <vTaskSuspendAll>
803012bc:	e3053ba4 	movw	r3, #23460	; 0x5ba4
803012c0:	e3483030 	movt	r3, #32816	; 0x8030
803012c4:	e5932000 	ldr	r2, [r3]
803012c8:	e59d3004 	ldr	r3, [sp, #4]
803012cc:	e0823003 	add	r3, r2, r3
803012d0:	e58d3008 	str	r3, [sp, #8]
803012d4:	e3053ac8 	movw	r3, #23240	; 0x5ac8
803012d8:	e3483030 	movt	r3, #32816	; 0x8030
803012dc:	e5933000 	ldr	r3, [r3]
803012e0:	e2833004 	add	r3, r3, #4
803012e4:	e1a00003 	mov	r0, r3
803012e8:	eb00083e 	bl	803033e8 <vListRemove>
803012ec:	e59d0008 	ldr	r0, [sp, #8]
803012f0:	eb00047d 	bl	803024ec <prvAddCurrentTaskToDelayedList>
803012f4:	eb0001a5 	bl	80301990 <xTaskResumeAll>
803012f8:	e58d000c 	str	r0, [sp, #12]
803012fc:	e59d300c 	ldr	r3, [sp, #12]
80301300:	e3530000 	cmp	r3, #0
80301304:	1a000000 	bne	8030130c <vTaskDelay+0x74>
80301308:	ef000000 	svc	0x00000000
8030130c:	e28dd014 	add	sp, sp, #20
80301310:	e8bd8000 	ldmfd	sp!, {pc}

80301314 <uxTaskPriorityGet>:
80301314:	e52de004 	push	{lr}		; (str lr, [sp, #-4]!)
80301318:	e24dd014 	sub	sp, sp, #20
8030131c:	e58d0004 	str	r0, [sp, #4]
80301320:	ebfffbc8 	bl	80300248 <vPortEnterCritical>
80301324:	e59d3004 	ldr	r3, [sp, #4]
80301328:	e3530000 	cmp	r3, #0
8030132c:	1a000003 	bne	80301340 <uxTaskPriorityGet+0x2c>
80301330:	e3053ac8 	movw	r3, #23240	; 0x5ac8
80301334:	e3483030 	movt	r3, #32816	; 0x8030
80301338:	e5933000 	ldr	r3, [r3]
8030133c:	ea000000 	b	80301344 <uxTaskPriorityGet+0x30>
80301340:	e59d3004 	ldr	r3, [sp, #4]
80301344:	e58d300c 	str	r3, [sp, #12]
80301348:	e59d300c 	ldr	r3, [sp, #12]
8030134c:	e593302c 	ldr	r3, [r3, #44]	; 0x2c
80301350:	e58d3008 	str	r3, [sp, #8]
80301354:	ebfffbc8 	bl	8030027c <vPortExitCritical>
80301358:	e59d3008 	ldr	r3, [sp, #8]
8030135c:	e1a00003 	mov	r0, r3
80301360:	e28dd014 	add	sp, sp, #20
80301364:	e8bd8000 	ldmfd	sp!, {pc}

80301368 <vTaskPrioritySet>:
80301368:	e52de004 	push	{lr}		; (str lr, [sp, #-4]!)
8030136c:	e24dd01c 	sub	sp, sp, #28
80301370:	e58d0004 	str	r0, [sp, #4]
80301374:	e58d1000 	str	r1, [sp]
80301378:	e3a03000 	mov	r3, #0
8030137c:	e58d3014 	str	r3, [sp, #20]
80301380:	e59d3000 	ldr	r3, [sp]
80301384:	e3530004 	cmp	r3, #4
80301388:	9a000001 	bls	80301394 <vTaskPrioritySet+0x2c>
8030138c:	e3a03004 	mov	r3, #4
80301390:	e58d3000 	str	r3, [sp]
80301394:	ebfffbab 	bl	80300248 <vPortEnterCritical>
80301398:	e3053ac8 	movw	r3, #23240	; 0x5ac8
8030139c:	e3483030 	movt	r3, #32816	; 0x8030
803013a0:	e5933000 	ldr	r3, [r3]
803013a4:	e59d2004 	ldr	r2, [sp, #4]
803013a8:	e1520003 	cmp	r2, r3
803013ac:	1a000001 	bne	803013b8 <vTaskPrioritySet+0x50>
803013b0:	e3a03000 	mov	r3, #0
803013b4:	e58d3004 	str	r3, [sp, #4]
803013b8:	e59d3004 	ldr	r3, [sp, #4]
803013bc:	e3530000 	cmp	r3, #0
803013c0:	1a000003 	bne	803013d4 <vTaskPrioritySet+0x6c>
803013c4:	e3053ac8 	movw	r3, #23240	; 0x5ac8
803013c8:	e3483030 	movt	r3, #32816	; 0x8030
803013cc:	e5933000 	ldr	r3, [r3]
803013d0:	ea000000 	b	803013d8 <vTaskPrioritySet+0x70>
803013d4:	e59d3004 	ldr	r3, [sp, #4]
803013d8:	e58d3010 	str	r3, [sp, #16]
803013dc:	e59d3010 	ldr	r3, [sp, #16]
803013e0:	e593302c 	ldr	r3, [r3, #44]	; 0x2c
803013e4:	e58d300c 	str	r3, [sp, #12]
803013e8:	e59d200c 	ldr	r2, [sp, #12]
803013ec:	e59d3000 	ldr	r3, [sp]
803013f0:	e1520003 	cmp	r2, r3
803013f4:	0a000043 	beq	80301508 <vTaskPrioritySet+0x1a0>
803013f8:	e59d2000 	ldr	r2, [sp]
803013fc:	e59d300c 	ldr	r3, [sp, #12]
80301400:	e1520003 	cmp	r2, r3
80301404:	9a000005 	bls	80301420 <vTaskPrioritySet+0xb8>
80301408:	e59d3004 	ldr	r3, [sp, #4]
8030140c:	e3530000 	cmp	r3, #0
80301410:	0a000007 	beq	80301434 <vTaskPrioritySet+0xcc>
80301414:	e3a03001 	mov	r3, #1
80301418:	e58d3014 	str	r3, [sp, #20]
8030141c:	ea000004 	b	80301434 <vTaskPrioritySet+0xcc>
80301420:	e59d3004 	ldr	r3, [sp, #4]
80301424:	e3530000 	cmp	r3, #0
80301428:	1a000001 	bne	80301434 <vTaskPrioritySet+0xcc>
8030142c:	e3a03001 	mov	r3, #1
80301430:	e58d3014 	str	r3, [sp, #20]
80301434:	e59d3010 	ldr	r3, [sp, #16]
80301438:	e59d2000 	ldr	r2, [sp]
8030143c:	e583202c 	str	r2, [r3, #44]	; 0x2c
80301440:	e59d3000 	ldr	r3, [sp]
80301444:	e2632005 	rsb	r2, r3, #5
80301448:	e59d3010 	ldr	r3, [sp, #16]
8030144c:	e5832018 	str	r2, [r3, #24]
80301450:	e59d3010 	ldr	r3, [sp, #16]
80301454:	e5931014 	ldr	r1, [r3, #20]
80301458:	e59d200c 	ldr	r2, [sp, #12]
8030145c:	e1a03002 	mov	r3, r2
80301460:	e1a03103 	lsl	r3, r3, #2
80301464:	e0833002 	add	r3, r3, r2
80301468:	e1a03103 	lsl	r3, r3, #2
8030146c:	e3052acc 	movw	r2, #23244	; 0x5acc
80301470:	e3482030 	movt	r2, #32816	; 0x8030
80301474:	e0833002 	add	r3, r3, r2
80301478:	e1510003 	cmp	r1, r3
8030147c:	1a00001d 	bne	803014f8 <vTaskPrioritySet+0x190>
80301480:	e59d3010 	ldr	r3, [sp, #16]
80301484:	e2833004 	add	r3, r3, #4
80301488:	e1a00003 	mov	r0, r3
8030148c:	eb0007d5 	bl	803033e8 <vListRemove>
80301490:	e59d3010 	ldr	r3, [sp, #16]
80301494:	e593202c 	ldr	r2, [r3, #44]	; 0x2c
80301498:	e3053bac 	movw	r3, #23468	; 0x5bac
8030149c:	e3483030 	movt	r3, #32816	; 0x8030
803014a0:	e5933000 	ldr	r3, [r3]
803014a4:	e1520003 	cmp	r2, r3
803014a8:	9a000004 	bls	803014c0 <vTaskPrioritySet+0x158>
803014ac:	e59d3010 	ldr	r3, [sp, #16]
803014b0:	e593202c 	ldr	r2, [r3, #44]	; 0x2c
803014b4:	e3053bac 	movw	r3, #23468	; 0x5bac
803014b8:	e3483030 	movt	r3, #32816	; 0x8030
803014bc:	e5832000 	str	r2, [r3]
803014c0:	e59d3010 	ldr	r3, [sp, #16]
803014c4:	e593202c 	ldr	r2, [r3, #44]	; 0x2c
803014c8:	e1a03002 	mov	r3, r2
803014cc:	e1a03103 	lsl	r3, r3, #2
803014d0:	e0833002 	add	r3, r3, r2
803014d4:	e1a03103 	lsl	r3, r3, #2
803014d8:	e3052acc 	movw	r2, #23244	; 0x5acc
803014dc:	e3482030 	movt	r2, #32816	; 0x8030
803014e0:	e0832002 	add	r2, r3, r2
803014e4:	e59d3010 	ldr	r3, [sp, #16]
803014e8:	e2833004 	add	r3, r3, #4
803014ec:	e1a00002 	mov	r0, r2
803014f0:	e1a01003 	mov	r1, r3
803014f4:	eb000767 	bl	80303298 <vListInsertEnd>
803014f8:	e59d3014 	ldr	r3, [sp, #20]
803014fc:	e3530001 	cmp	r3, #1
80301500:	1a000000 	bne	80301508 <vTaskPrioritySet+0x1a0>
80301504:	ef000000 	svc	0x00000000
80301508:	ebfffb5b 	bl	8030027c <vPortExitCritical>
8030150c:	e28dd01c 	add	sp, sp, #28
80301510:	e8bd8000 	ldmfd	sp!, {pc}

80301514 <vTaskSuspend>:
80301514:	e52de004 	push	{lr}		; (str lr, [sp, #-4]!)
80301518:	e24dd014 	sub	sp, sp, #20
8030151c:	e58d0004 	str	r0, [sp, #4]
80301520:	ebfffb48 	bl	80300248 <vPortEnterCritical>
80301524:	e3053ac8 	movw	r3, #23240	; 0x5ac8
80301528:	e3483030 	movt	r3, #32816	; 0x8030
8030152c:	e5933000 	ldr	r3, [r3]
80301530:	e59d2004 	ldr	r2, [sp, #4]
80301534:	e1520003 	cmp	r2, r3
80301538:	1a000001 	bne	80301544 <vTaskSuspend+0x30>
8030153c:	e3a03000 	mov	r3, #0
80301540:	e58d3004 	str	r3, [sp, #4]
80301544:	e59d3004 	ldr	r3, [sp, #4]
80301548:	e3530000 	cmp	r3, #0
8030154c:	1a000003 	bne	80301560 <vTaskSuspend+0x4c>
80301550:	e3053ac8 	movw	r3, #23240	; 0x5ac8
80301554:	e3483030 	movt	r3, #32816	; 0x8030
80301558:	e5933000 	ldr	r3, [r3]
8030155c:	ea000000 	b	80301564 <vTaskSuspend+0x50>
80301560:	e59d3004 	ldr	r3, [sp, #4]
80301564:	e58d300c 	str	r3, [sp, #12]
80301568:	e59d300c 	ldr	r3, [sp, #12]
8030156c:	e2833004 	add	r3, r3, #4
80301570:	e1a00003 	mov	r0, r3
80301574:	eb00079b 	bl	803033e8 <vListRemove>
80301578:	e59d300c 	ldr	r3, [sp, #12]
8030157c:	e5933028 	ldr	r3, [r3, #40]	; 0x28
80301580:	e3530000 	cmp	r3, #0
80301584:	0a000003 	beq	80301598 <vTaskSuspend+0x84>
80301588:	e59d300c 	ldr	r3, [sp, #12]
8030158c:	e2833018 	add	r3, r3, #24
80301590:	e1a00003 	mov	r0, r3
80301594:	eb000793 	bl	803033e8 <vListRemove>
80301598:	e59d300c 	ldr	r3, [sp, #12]
8030159c:	e2833004 	add	r3, r3, #4
803015a0:	e3050b8c 	movw	r0, #23436	; 0x5b8c
803015a4:	e3480030 	movt	r0, #32816	; 0x8030
803015a8:	e1a01003 	mov	r1, r3
803015ac:	eb000739 	bl	80303298 <vListInsertEnd>
803015b0:	ebfffb31 	bl	8030027c <vPortExitCritical>
803015b4:	e59d3004 	ldr	r3, [sp, #4]
803015b8:	e3530000 	cmp	r3, #0
803015bc:	1a000014 	bne	80301614 <vTaskSuspend+0x100>
803015c0:	e3053bb0 	movw	r3, #23472	; 0x5bb0
803015c4:	e3483030 	movt	r3, #32816	; 0x8030
803015c8:	e5933000 	ldr	r3, [r3]
803015cc:	e3530000 	cmp	r3, #0
803015d0:	0a000001 	beq	803015dc <vTaskSuspend+0xc8>
803015d4:	ef000000 	svc	0x00000000
803015d8:	ea00000d 	b	80301614 <vTaskSuspend+0x100>
803015dc:	e3053b8c 	movw	r3, #23436	; 0x5b8c
803015e0:	e3483030 	movt	r3, #32816	; 0x8030
803015e4:	e5932000 	ldr	r2, [r3]
803015e8:	e3053ba0 	movw	r3, #23456	; 0x5ba0
803015ec:	e3483030 	movt	r3, #32816	; 0x8030
803015f0:	e5933000 	ldr	r3, [r3]
803015f4:	e1520003 	cmp	r2, r3
803015f8:	1a000004 	bne	80301610 <vTaskSuspend+0xfc>
803015fc:	e3053ac8 	movw	r3, #23240	; 0x5ac8
80301600:	e3483030 	movt	r3, #32816	; 0x8030
80301604:	e3a02000 	mov	r2, #0
80301608:	e5832000 	str	r2, [r3]
8030160c:	ea000000 	b	80301614 <vTaskSuspend+0x100>
80301610:	eb0001ff 	bl	80301e14 <vTaskSwitchContext>
80301614:	e28dd014 	add	sp, sp, #20
80301618:	e8bd8000 	ldmfd	sp!, {pc}

8030161c <xTaskIsTaskSuspended>:
8030161c:	e24dd010 	sub	sp, sp, #16
80301620:	e58d0004 	str	r0, [sp, #4]
80301624:	e3a03000 	mov	r3, #0
80301628:	e58d300c 	str	r3, [sp, #12]
8030162c:	e59d3004 	ldr	r3, [sp, #4]
80301630:	e58d3008 	str	r3, [sp, #8]
80301634:	e59d3008 	ldr	r3, [sp, #8]
80301638:	e5932014 	ldr	r2, [r3, #20]
8030163c:	e3053b8c 	movw	r3, #23436	; 0x5b8c
80301640:	e3483030 	movt	r3, #32816	; 0x8030
80301644:	e1520003 	cmp	r2, r3
80301648:	1a00000b 	bne	8030167c <xTaskIsTaskSuspended+0x60>
8030164c:	e59d3008 	ldr	r3, [sp, #8]
80301650:	e5932028 	ldr	r2, [r3, #40]	; 0x28
80301654:	e3053b60 	movw	r3, #23392	; 0x5b60
80301658:	e3483030 	movt	r3, #32816	; 0x8030
8030165c:	e1520003 	cmp	r2, r3
80301660:	0a000005 	beq	8030167c <xTaskIsTaskSuspended+0x60>
80301664:	e59d3008 	ldr	r3, [sp, #8]
80301668:	e5933028 	ldr	r3, [r3, #40]	; 0x28
8030166c:	e3530000 	cmp	r3, #0
80301670:	1a000001 	bne	8030167c <xTaskIsTaskSuspended+0x60>
80301674:	e3a03001 	mov	r3, #1
80301678:	e58d300c 	str	r3, [sp, #12]
8030167c:	e59d300c 	ldr	r3, [sp, #12]
80301680:	e1a00003 	mov	r0, r3
80301684:	e28dd010 	add	sp, sp, #16
80301688:	e12fff1e 	bx	lr

8030168c <vTaskResume>:
8030168c:	e52de004 	push	{lr}		; (str lr, [sp, #-4]!)
80301690:	e24dd014 	sub	sp, sp, #20
80301694:	e58d0004 	str	r0, [sp, #4]
80301698:	e59d3004 	ldr	r3, [sp, #4]
8030169c:	e58d300c 	str	r3, [sp, #12]
803016a0:	e59d300c 	ldr	r3, [sp, #12]
803016a4:	e3530000 	cmp	r3, #0
803016a8:	0a000033 	beq	8030177c <vTaskResume+0xf0>
803016ac:	e3053ac8 	movw	r3, #23240	; 0x5ac8
803016b0:	e3483030 	movt	r3, #32816	; 0x8030
803016b4:	e5933000 	ldr	r3, [r3]
803016b8:	e59d200c 	ldr	r2, [sp, #12]
803016bc:	e1520003 	cmp	r2, r3
803016c0:	0a00002d 	beq	8030177c <vTaskResume+0xf0>
803016c4:	ebfffadf 	bl	80300248 <vPortEnterCritical>
803016c8:	e59d000c 	ldr	r0, [sp, #12]
803016cc:	ebffffd2 	bl	8030161c <xTaskIsTaskSuspended>
803016d0:	e1a03000 	mov	r3, r0
803016d4:	e3530001 	cmp	r3, #1
803016d8:	1a000026 	bne	80301778 <vTaskResume+0xec>
803016dc:	e59d300c 	ldr	r3, [sp, #12]
803016e0:	e2833004 	add	r3, r3, #4
803016e4:	e1a00003 	mov	r0, r3
803016e8:	eb00073e 	bl	803033e8 <vListRemove>
803016ec:	e59d300c 	ldr	r3, [sp, #12]
803016f0:	e593202c 	ldr	r2, [r3, #44]	; 0x2c
803016f4:	e3053bac 	movw	r3, #23468	; 0x5bac
803016f8:	e3483030 	movt	r3, #32816	; 0x8030
803016fc:	e5933000 	ldr	r3, [r3]
80301700:	e1520003 	cmp	r2, r3
80301704:	9a000004 	bls	8030171c <vTaskResume+0x90>
80301708:	e59d300c 	ldr	r3, [sp, #12]
8030170c:	e593202c 	ldr	r2, [r3, #44]	; 0x2c
80301710:	e3053bac 	movw	r3, #23468	; 0x5bac
80301714:	e3483030 	movt	r3, #32816	; 0x8030
80301718:	e5832000 	str	r2, [r3]
8030171c:	e59d300c 	ldr	r3, [sp, #12]
80301720:	e593202c 	ldr	r2, [r3, #44]	; 0x2c
80301724:	e1a03002 	mov	r3, r2
80301728:	e1a03103 	lsl	r3, r3, #2
8030172c:	e0833002 	add	r3, r3, r2
80301730:	e1a03103 	lsl	r3, r3, #2
80301734:	e3052acc 	movw	r2, #23244	; 0x5acc
80301738:	e3482030 	movt	r2, #32816	; 0x8030
8030173c:	e0832002 	add	r2, r3, r2
80301740:	e59d300c 	ldr	r3, [sp, #12]
80301744:	e2833004 	add	r3, r3, #4
80301748:	e1a00002 	mov	r0, r2
8030174c:	e1a01003 	mov	r1, r3
80301750:	eb0006d0 	bl	80303298 <vListInsertEnd>
80301754:	e59d300c 	ldr	r3, [sp, #12]
80301758:	e593202c 	ldr	r2, [r3, #44]	; 0x2c
8030175c:	e3053ac8 	movw	r3, #23240	; 0x5ac8
80301760:	e3483030 	movt	r3, #32816	; 0x8030
80301764:	e5933000 	ldr	r3, [r3]
80301768:	e593302c 	ldr	r3, [r3, #44]	; 0x2c
8030176c:	e1520003 	cmp	r2, r3
80301770:	3a000000 	bcc	80301778 <vTaskResume+0xec>
80301774:	ef000000 	svc	0x00000000
80301778:	ebfffabf 	bl	8030027c <vPortExitCritical>
8030177c:	e28dd014 	add	sp, sp, #20
80301780:	e8bd8000 	ldmfd	sp!, {pc}

80301784 <xTaskResumeFromISR>:
80301784:	e52de004 	push	{lr}		; (str lr, [sp, #-4]!)
80301788:	e24dd014 	sub	sp, sp, #20
8030178c:	e58d0004 	str	r0, [sp, #4]
80301790:	e3a03000 	mov	r3, #0
80301794:	e58d300c 	str	r3, [sp, #12]
80301798:	e59d3004 	ldr	r3, [sp, #4]
8030179c:	e58d3008 	str	r3, [sp, #8]
803017a0:	e59d0008 	ldr	r0, [sp, #8]
803017a4:	ebffff9c 	bl	8030161c <xTaskIsTaskSuspended>
803017a8:	e1a03000 	mov	r3, r0
803017ac:	e3530001 	cmp	r3, #1
803017b0:	1a000034 	bne	80301888 <xTaskResumeFromISR+0x104>
803017b4:	e3053bb4 	movw	r3, #23476	; 0x5bb4
803017b8:	e3483030 	movt	r3, #32816	; 0x8030
803017bc:	e5933000 	ldr	r3, [r3]
803017c0:	e3530000 	cmp	r3, #0
803017c4:	1a000029 	bne	80301870 <xTaskResumeFromISR+0xec>
803017c8:	e59d3008 	ldr	r3, [sp, #8]
803017cc:	e593202c 	ldr	r2, [r3, #44]	; 0x2c
803017d0:	e3053ac8 	movw	r3, #23240	; 0x5ac8
803017d4:	e3483030 	movt	r3, #32816	; 0x8030
803017d8:	e5933000 	ldr	r3, [r3]
803017dc:	e593302c 	ldr	r3, [r3, #44]	; 0x2c
803017e0:	e1520003 	cmp	r2, r3
803017e4:	33a03000 	movcc	r3, #0
803017e8:	23a03001 	movcs	r3, #1
803017ec:	e6ef3073 	uxtb	r3, r3
803017f0:	e58d300c 	str	r3, [sp, #12]
803017f4:	e59d3008 	ldr	r3, [sp, #8]
803017f8:	e2833004 	add	r3, r3, #4
803017fc:	e1a00003 	mov	r0, r3
80301800:	eb0006f8 	bl	803033e8 <vListRemove>
80301804:	e59d3008 	ldr	r3, [sp, #8]
80301808:	e593202c 	ldr	r2, [r3, #44]	; 0x2c
8030180c:	e3053bac 	movw	r3, #23468	; 0x5bac
80301810:	e3483030 	movt	r3, #32816	; 0x8030
80301814:	e5933000 	ldr	r3, [r3]
80301818:	e1520003 	cmp	r2, r3
8030181c:	9a000004 	bls	80301834 <xTaskResumeFromISR+0xb0>
80301820:	e59d3008 	ldr	r3, [sp, #8]
80301824:	e593202c 	ldr	r2, [r3, #44]	; 0x2c
80301828:	e3053bac 	movw	r3, #23468	; 0x5bac
8030182c:	e3483030 	movt	r3, #32816	; 0x8030
80301830:	e5832000 	str	r2, [r3]
80301834:	e59d3008 	ldr	r3, [sp, #8]
80301838:	e593202c 	ldr	r2, [r3, #44]	; 0x2c
8030183c:	e1a03002 	mov	r3, r2
80301840:	e1a03103 	lsl	r3, r3, #2
80301844:	e0833002 	add	r3, r3, r2
80301848:	e1a03103 	lsl	r3, r3, #2
8030184c:	e3052acc 	movw	r2, #23244	; 0x5acc
80301850:	e3482030 	movt	r2, #32816	; 0x8030
80301854:	e0832002 	add	r2, r3, r2
80301858:	e59d3008 	ldr	r3, [sp, #8]
8030185c:	e2833004 	add	r3, r3, #4
80301860:	e1a00002 	mov	r0, r2
80301864:	e1a01003 	mov	r1, r3
80301868:	eb00068a 	bl	80303298 <vListInsertEnd>
8030186c:	ea000005 	b	80301888 <xTaskResumeFromISR+0x104>
80301870:	e59d3008 	ldr	r3, [sp, #8]
80301874:	e2833018 	add	r3, r3, #24
80301878:	e3050b60 	movw	r0, #23392	; 0x5b60
8030187c:	e3480030 	movt	r0, #32816	; 0x8030
80301880:	e1a01003 	mov	r1, r3
80301884:	eb000683 	bl	80303298 <vListInsertEnd>
80301888:	e59d300c 	ldr	r3, [sp, #12]
8030188c:	e1a00003 	mov	r0, r3
80301890:	e28dd014 	add	sp, sp, #20
80301894:	e8bd8000 	ldmfd	sp!, {pc}

80301898 <vTaskStartScheduler>:
80301898:	e52de004 	push	{lr}		; (str lr, [sp, #-4]!)
8030189c:	e24dd01c 	sub	sp, sp, #28
803018a0:	e3a03000 	mov	r3, #0
803018a4:	e58d3000 	str	r3, [sp]
803018a8:	e3a03000 	mov	r3, #0
803018ac:	e58d3004 	str	r3, [sp, #4]
803018b0:	e3a03000 	mov	r3, #0
803018b4:	e58d3008 	str	r3, [sp, #8]
803018b8:	e3a03000 	mov	r3, #0
803018bc:	e58d300c 	str	r3, [sp, #12]
803018c0:	e3020288 	movw	r0, #8840	; 0x2288
803018c4:	e3480030 	movt	r0, #32816	; 0x8030
803018c8:	e30518fc 	movw	r1, #22780	; 0x58fc
803018cc:	e3481030 	movt	r1, #32816	; 0x8030
803018d0:	e3a02080 	mov	r2, #128	; 0x80
803018d4:	e3a03000 	mov	r3, #0
803018d8:	ebfffd4e 	bl	80300e18 <xTaskGenericCreate>
803018dc:	e58d0014 	str	r0, [sp, #20]
803018e0:	e59d3014 	ldr	r3, [sp, #20]
803018e4:	e3530001 	cmp	r3, #1
803018e8:	1a000001 	bne	803018f4 <vTaskStartScheduler+0x5c>
803018ec:	ebfffafa 	bl	803004dc <xTimerCreateTimerTask>
803018f0:	e58d0014 	str	r0, [sp, #20]
803018f4:	e59d3014 	ldr	r3, [sp, #20]
803018f8:	e3530001 	cmp	r3, #1
803018fc:	1a00000d 	bne	80301938 <vTaskStartScheduler+0xa0>
80301900:	e92d0001 	stmfd	sp!, {r0}
80301904:	e10f0000 	mrs	r0, CPSR
80301908:	e38000c0 	orr	r0, r0, #192	; 0xc0
8030190c:	e129f000 	msr	CPSR_fc, r0
80301910:	e8bd0001 	ldmfd	sp!, {r0}
80301914:	e3053bb0 	movw	r3, #23472	; 0x5bb0
80301918:	e3483030 	movt	r3, #32816	; 0x8030
8030191c:	e3a02001 	mov	r2, #1
80301920:	e5832000 	str	r2, [r3]
80301924:	e3053ba4 	movw	r3, #23460	; 0x5ba4
80301928:	e3483030 	movt	r3, #32816	; 0x8030
8030192c:	e3a02000 	mov	r2, #0
80301930:	e5832000 	str	r2, [r3]
80301934:	eb000836 	bl	80303a14 <xPortStartScheduler>
80301938:	e28dd01c 	add	sp, sp, #28
8030193c:	e8bd8000 	ldmfd	sp!, {pc}

80301940 <vTaskEndScheduler>:
80301940:	e92d4008 	push	{r3, lr}
80301944:	e92d0001 	stmfd	sp!, {r0}
80301948:	e10f0000 	mrs	r0, CPSR
8030194c:	e38000c0 	orr	r0, r0, #192	; 0xc0
80301950:	e129f000 	msr	CPSR_fc, r0
80301954:	e8bd0001 	ldmfd	sp!, {r0}
80301958:	e3053bb0 	movw	r3, #23472	; 0x5bb0
8030195c:	e3483030 	movt	r3, #32816	; 0x8030
80301960:	e3a02000 	mov	r2, #0
80301964:	e5832000 	str	r2, [r3]
80301968:	eb000835 	bl	80303a44 <vPortEndScheduler>
8030196c:	e8bd8008 	pop	{r3, pc}

80301970 <vTaskSuspendAll>:
80301970:	e3053bb4 	movw	r3, #23476	; 0x5bb4
80301974:	e3483030 	movt	r3, #32816	; 0x8030
80301978:	e5933000 	ldr	r3, [r3]
8030197c:	e2832001 	add	r2, r3, #1
80301980:	e3053bb4 	movw	r3, #23476	; 0x5bb4
80301984:	e3483030 	movt	r3, #32816	; 0x8030
80301988:	e5832000 	str	r2, [r3]
8030198c:	e12fff1e 	bx	lr

80301990 <xTaskResumeAll>:
80301990:	e92d4010 	push	{r4, lr}
80301994:	e24dd008 	sub	sp, sp, #8
80301998:	e3a03000 	mov	r3, #0
8030199c:	e58d3004 	str	r3, [sp, #4]
803019a0:	ebfffa28 	bl	80300248 <vPortEnterCritical>
803019a4:	e3053bb4 	movw	r3, #23476	; 0x5bb4
803019a8:	e3483030 	movt	r3, #32816	; 0x8030
803019ac:	e5933000 	ldr	r3, [r3]
803019b0:	e2432001 	sub	r2, r3, #1
803019b4:	e3053bb4 	movw	r3, #23476	; 0x5bb4
803019b8:	e3483030 	movt	r3, #32816	; 0x8030
803019bc:	e5832000 	str	r2, [r3]
803019c0:	e3053bb4 	movw	r3, #23476	; 0x5bb4
803019c4:	e3483030 	movt	r3, #32816	; 0x8030
803019c8:	e5933000 	ldr	r3, [r3]
803019cc:	e3530000 	cmp	r3, #0
803019d0:	1a000059 	bne	80301b3c <xTaskResumeAll+0x1ac>
803019d4:	e3053ba0 	movw	r3, #23456	; 0x5ba0
803019d8:	e3483030 	movt	r3, #32816	; 0x8030
803019dc:	e5933000 	ldr	r3, [r3]
803019e0:	e3530000 	cmp	r3, #0
803019e4:	0a000054 	beq	80301b3c <xTaskResumeAll+0x1ac>
803019e8:	e3a03000 	mov	r3, #0
803019ec:	e58d3000 	str	r3, [sp]
803019f0:	ea000028 	b	80301a98 <xTaskResumeAll+0x108>
803019f4:	e3053b60 	movw	r3, #23392	; 0x5b60
803019f8:	e3483030 	movt	r3, #32816	; 0x8030
803019fc:	e593300c 	ldr	r3, [r3, #12]
80301a00:	e593400c 	ldr	r4, [r3, #12]
80301a04:	e2843018 	add	r3, r4, #24
80301a08:	e1a00003 	mov	r0, r3
80301a0c:	eb000675 	bl	803033e8 <vListRemove>
80301a10:	e2843004 	add	r3, r4, #4
80301a14:	e1a00003 	mov	r0, r3
80301a18:	eb000672 	bl	803033e8 <vListRemove>
80301a1c:	e594202c 	ldr	r2, [r4, #44]	; 0x2c
80301a20:	e3053bac 	movw	r3, #23468	; 0x5bac
80301a24:	e3483030 	movt	r3, #32816	; 0x8030
80301a28:	e5933000 	ldr	r3, [r3]
80301a2c:	e1520003 	cmp	r2, r3
80301a30:	9a000003 	bls	80301a44 <xTaskResumeAll+0xb4>
80301a34:	e594202c 	ldr	r2, [r4, #44]	; 0x2c
80301a38:	e3053bac 	movw	r3, #23468	; 0x5bac
80301a3c:	e3483030 	movt	r3, #32816	; 0x8030
80301a40:	e5832000 	str	r2, [r3]
80301a44:	e594202c 	ldr	r2, [r4, #44]	; 0x2c
80301a48:	e1a03002 	mov	r3, r2
80301a4c:	e1a03103 	lsl	r3, r3, #2
80301a50:	e0833002 	add	r3, r3, r2
80301a54:	e1a03103 	lsl	r3, r3, #2
80301a58:	e3052acc 	movw	r2, #23244	; 0x5acc
80301a5c:	e3482030 	movt	r2, #32816	; 0x8030
80301a60:	e0832002 	add	r2, r3, r2
80301a64:	e2843004 	add	r3, r4, #4
80301a68:	e1a00002 	mov	r0, r2
80301a6c:	e1a01003 	mov	r1, r3
80301a70:	eb000608 	bl	80303298 <vListInsertEnd>
80301a74:	e594202c 	ldr	r2, [r4, #44]	; 0x2c
80301a78:	e3053ac8 	movw	r3, #23240	; 0x5ac8
80301a7c:	e3483030 	movt	r3, #32816	; 0x8030
80301a80:	e5933000 	ldr	r3, [r3]
80301a84:	e593302c 	ldr	r3, [r3, #44]	; 0x2c
80301a88:	e1520003 	cmp	r2, r3
80301a8c:	3a000001 	bcc	80301a98 <xTaskResumeAll+0x108>
80301a90:	e3a03001 	mov	r3, #1
80301a94:	e58d3000 	str	r3, [sp]
80301a98:	e3053b60 	movw	r3, #23392	; 0x5b60
80301a9c:	e3483030 	movt	r3, #32816	; 0x8030
80301aa0:	e5933000 	ldr	r3, [r3]
80301aa4:	e3530000 	cmp	r3, #0
80301aa8:	1affffd1 	bne	803019f4 <xTaskResumeAll+0x64>
80301aac:	e3053bb8 	movw	r3, #23480	; 0x5bb8
80301ab0:	e3483030 	movt	r3, #32816	; 0x8030
80301ab4:	e5933000 	ldr	r3, [r3]
80301ab8:	e3530000 	cmp	r3, #0
80301abc:	0a00000f 	beq	80301b00 <xTaskResumeAll+0x170>
80301ac0:	ea000007 	b	80301ae4 <xTaskResumeAll+0x154>
80301ac4:	eb00003d 	bl	80301bc0 <vTaskIncrementTick>
80301ac8:	e3053bb8 	movw	r3, #23480	; 0x5bb8
80301acc:	e3483030 	movt	r3, #32816	; 0x8030
80301ad0:	e5933000 	ldr	r3, [r3]
80301ad4:	e2432001 	sub	r2, r3, #1
80301ad8:	e3053bb8 	movw	r3, #23480	; 0x5bb8
80301adc:	e3483030 	movt	r3, #32816	; 0x8030
80301ae0:	e5832000 	str	r2, [r3]
80301ae4:	e3053bb8 	movw	r3, #23480	; 0x5bb8
80301ae8:	e3483030 	movt	r3, #32816	; 0x8030
80301aec:	e5933000 	ldr	r3, [r3]
80301af0:	e3530000 	cmp	r3, #0
80301af4:	1afffff2 	bne	80301ac4 <xTaskResumeAll+0x134>
80301af8:	e3a03001 	mov	r3, #1
80301afc:	e58d3000 	str	r3, [sp]
80301b00:	e59d3000 	ldr	r3, [sp]
80301b04:	e3530001 	cmp	r3, #1
80301b08:	0a000004 	beq	80301b20 <xTaskResumeAll+0x190>
80301b0c:	e3053bbc 	movw	r3, #23484	; 0x5bbc
80301b10:	e3483030 	movt	r3, #32816	; 0x8030
80301b14:	e5933000 	ldr	r3, [r3]
80301b18:	e3530001 	cmp	r3, #1
80301b1c:	1a000006 	bne	80301b3c <xTaskResumeAll+0x1ac>
80301b20:	e3a03001 	mov	r3, #1
80301b24:	e58d3004 	str	r3, [sp, #4]
80301b28:	e3053bbc 	movw	r3, #23484	; 0x5bbc
80301b2c:	e3483030 	movt	r3, #32816	; 0x8030
80301b30:	e3a02000 	mov	r2, #0
80301b34:	e5832000 	str	r2, [r3]
80301b38:	ef000000 	svc	0x00000000
80301b3c:	ebfff9ce 	bl	8030027c <vPortExitCritical>
80301b40:	e59d3004 	ldr	r3, [sp, #4]
80301b44:	e1a00003 	mov	r0, r3
80301b48:	e28dd008 	add	sp, sp, #8
80301b4c:	e8bd8010 	pop	{r4, pc}

80301b50 <xTaskGetTickCount>:
80301b50:	e52de004 	push	{lr}		; (str lr, [sp, #-4]!)
80301b54:	e24dd00c 	sub	sp, sp, #12
80301b58:	ebfff9ba 	bl	80300248 <vPortEnterCritical>
80301b5c:	e3053ba4 	movw	r3, #23460	; 0x5ba4
80301b60:	e3483030 	movt	r3, #32816	; 0x8030
80301b64:	e5933000 	ldr	r3, [r3]
80301b68:	e58d3004 	str	r3, [sp, #4]
80301b6c:	ebfff9c2 	bl	8030027c <vPortExitCritical>
80301b70:	e59d3004 	ldr	r3, [sp, #4]
80301b74:	e1a00003 	mov	r0, r3
80301b78:	e28dd00c 	add	sp, sp, #12
80301b7c:	e8bd8000 	ldmfd	sp!, {pc}

80301b80 <xTaskGetTickCountFromISR>:
80301b80:	e24dd008 	sub	sp, sp, #8
80301b84:	e3a03000 	mov	r3, #0
80301b88:	e58d3004 	str	r3, [sp, #4]
80301b8c:	e3053ba4 	movw	r3, #23460	; 0x5ba4
80301b90:	e3483030 	movt	r3, #32816	; 0x8030
80301b94:	e5933000 	ldr	r3, [r3]
80301b98:	e58d3000 	str	r3, [sp]
80301b9c:	e59d3000 	ldr	r3, [sp]
80301ba0:	e1a00003 	mov	r0, r3
80301ba4:	e28dd008 	add	sp, sp, #8
80301ba8:	e12fff1e 	bx	lr

80301bac <uxTaskGetNumberOfTasks>:
80301bac:	e3053ba0 	movw	r3, #23456	; 0x5ba0
80301bb0:	e3483030 	movt	r3, #32816	; 0x8030
80301bb4:	e5933000 	ldr	r3, [r3]
80301bb8:	e1a00003 	mov	r0, r3
80301bbc:	e12fff1e 	bx	lr

80301bc0 <vTaskIncrementTick>:
80301bc0:	e52de004 	push	{lr}		; (str lr, [sp, #-4]!)
80301bc4:	e24dd014 	sub	sp, sp, #20
80301bc8:	e3053bb4 	movw	r3, #23476	; 0x5bb4
80301bcc:	e3483030 	movt	r3, #32816	; 0x8030
80301bd0:	e5933000 	ldr	r3, [r3]
80301bd4:	e3530000 	cmp	r3, #0
80301bd8:	1a000084 	bne	80301df0 <vTaskIncrementTick+0x230>
80301bdc:	e3053ba4 	movw	r3, #23460	; 0x5ba4
80301be0:	e3483030 	movt	r3, #32816	; 0x8030
80301be4:	e5933000 	ldr	r3, [r3]
80301be8:	e2832001 	add	r2, r3, #1
80301bec:	e3053ba4 	movw	r3, #23460	; 0x5ba4
80301bf0:	e3483030 	movt	r3, #32816	; 0x8030
80301bf4:	e5832000 	str	r2, [r3]
80301bf8:	e3053ba4 	movw	r3, #23460	; 0x5ba4
80301bfc:	e3483030 	movt	r3, #32816	; 0x8030
80301c00:	e5933000 	ldr	r3, [r3]
80301c04:	e3530000 	cmp	r3, #0
80301c08:	1a00002a 	bne	80301cb8 <vTaskIncrementTick+0xf8>
80301c0c:	e3053b58 	movw	r3, #23384	; 0x5b58
80301c10:	e3483030 	movt	r3, #32816	; 0x8030
80301c14:	e5933000 	ldr	r3, [r3]
80301c18:	e58d300c 	str	r3, [sp, #12]
80301c1c:	e3053b5c 	movw	r3, #23388	; 0x5b5c
80301c20:	e3483030 	movt	r3, #32816	; 0x8030
80301c24:	e5932000 	ldr	r2, [r3]
80301c28:	e3053b58 	movw	r3, #23384	; 0x5b58
80301c2c:	e3483030 	movt	r3, #32816	; 0x8030
80301c30:	e5832000 	str	r2, [r3]
80301c34:	e3053b5c 	movw	r3, #23388	; 0x5b5c
80301c38:	e3483030 	movt	r3, #32816	; 0x8030
80301c3c:	e59d200c 	ldr	r2, [sp, #12]
80301c40:	e5832000 	str	r2, [r3]
80301c44:	e3053bc0 	movw	r3, #23488	; 0x5bc0
80301c48:	e3483030 	movt	r3, #32816	; 0x8030
80301c4c:	e5933000 	ldr	r3, [r3]
80301c50:	e2832001 	add	r2, r3, #1
80301c54:	e3053bc0 	movw	r3, #23488	; 0x5bc0
80301c58:	e3483030 	movt	r3, #32816	; 0x8030
80301c5c:	e5832000 	str	r2, [r3]
80301c60:	e3053b58 	movw	r3, #23384	; 0x5b58
80301c64:	e3483030 	movt	r3, #32816	; 0x8030
80301c68:	e5933000 	ldr	r3, [r3]
80301c6c:	e5933000 	ldr	r3, [r3]
80301c70:	e3530000 	cmp	r3, #0
80301c74:	1a000004 	bne	80301c8c <vTaskIncrementTick+0xcc>
80301c78:	e3053a80 	movw	r3, #23168	; 0x5a80
80301c7c:	e3483030 	movt	r3, #32816	; 0x8030
80301c80:	e3e02000 	mvn	r2, #0
80301c84:	e5832000 	str	r2, [r3]
80301c88:	ea00000a 	b	80301cb8 <vTaskIncrementTick+0xf8>
80301c8c:	e3053b58 	movw	r3, #23384	; 0x5b58
80301c90:	e3483030 	movt	r3, #32816	; 0x8030
80301c94:	e5933000 	ldr	r3, [r3]
80301c98:	e593300c 	ldr	r3, [r3, #12]
80301c9c:	e593300c 	ldr	r3, [r3, #12]
80301ca0:	e58d3008 	str	r3, [sp, #8]
80301ca4:	e59d3008 	ldr	r3, [sp, #8]
80301ca8:	e5932004 	ldr	r2, [r3, #4]
80301cac:	e3053a80 	movw	r3, #23168	; 0x5a80
80301cb0:	e3483030 	movt	r3, #32816	; 0x8030
80301cb4:	e5832000 	str	r2, [r3]
80301cb8:	e3053ba4 	movw	r3, #23460	; 0x5ba4
80301cbc:	e3483030 	movt	r3, #32816	; 0x8030
80301cc0:	e5932000 	ldr	r2, [r3]
80301cc4:	e3053a80 	movw	r3, #23168	; 0x5a80
80301cc8:	e3483030 	movt	r3, #32816	; 0x8030
80301ccc:	e5933000 	ldr	r3, [r3]
80301cd0:	e1520003 	cmp	r2, r3
80301cd4:	3a00004c 	bcc	80301e0c <vTaskIncrementTick+0x24c>
80301cd8:	e3053b58 	movw	r3, #23384	; 0x5b58
80301cdc:	e3483030 	movt	r3, #32816	; 0x8030
80301ce0:	e5933000 	ldr	r3, [r3]
80301ce4:	e5933000 	ldr	r3, [r3]
80301ce8:	e3530000 	cmp	r3, #0
80301cec:	1a000004 	bne	80301d04 <vTaskIncrementTick+0x144>
80301cf0:	e3053a80 	movw	r3, #23168	; 0x5a80
80301cf4:	e3483030 	movt	r3, #32816	; 0x8030
80301cf8:	e3e02000 	mvn	r2, #0
80301cfc:	e5832000 	str	r2, [r3]
80301d00:	ea000041 	b	80301e0c <vTaskIncrementTick+0x24c>
80301d04:	e3053b58 	movw	r3, #23384	; 0x5b58
80301d08:	e3483030 	movt	r3, #32816	; 0x8030
80301d0c:	e5933000 	ldr	r3, [r3]
80301d10:	e593300c 	ldr	r3, [r3, #12]
80301d14:	e593300c 	ldr	r3, [r3, #12]
80301d18:	e58d3008 	str	r3, [sp, #8]
80301d1c:	e59d3008 	ldr	r3, [sp, #8]
80301d20:	e5933004 	ldr	r3, [r3, #4]
80301d24:	e58d3004 	str	r3, [sp, #4]
80301d28:	e3053ba4 	movw	r3, #23460	; 0x5ba4
80301d2c:	e3483030 	movt	r3, #32816	; 0x8030
80301d30:	e5932000 	ldr	r2, [r3]
80301d34:	e59d3004 	ldr	r3, [sp, #4]
80301d38:	e1520003 	cmp	r2, r3
80301d3c:	2a000004 	bcs	80301d54 <vTaskIncrementTick+0x194>
80301d40:	e3053a80 	movw	r3, #23168	; 0x5a80
80301d44:	e3483030 	movt	r3, #32816	; 0x8030
80301d48:	e59d2004 	ldr	r2, [sp, #4]
80301d4c:	e5832000 	str	r2, [r3]
80301d50:	ea00002d 	b	80301e0c <vTaskIncrementTick+0x24c>
80301d54:	e59d3008 	ldr	r3, [sp, #8]
80301d58:	e2833004 	add	r3, r3, #4
80301d5c:	e1a00003 	mov	r0, r3
80301d60:	eb0005a0 	bl	803033e8 <vListRemove>
80301d64:	e59d3008 	ldr	r3, [sp, #8]
80301d68:	e5933028 	ldr	r3, [r3, #40]	; 0x28
80301d6c:	e3530000 	cmp	r3, #0
80301d70:	0a000003 	beq	80301d84 <vTaskIncrementTick+0x1c4>
80301d74:	e59d3008 	ldr	r3, [sp, #8]
80301d78:	e2833018 	add	r3, r3, #24
80301d7c:	e1a00003 	mov	r0, r3
80301d80:	eb000598 	bl	803033e8 <vListRemove>
80301d84:	e59d3008 	ldr	r3, [sp, #8]
80301d88:	e593202c 	ldr	r2, [r3, #44]	; 0x2c
80301d8c:	e3053bac 	movw	r3, #23468	; 0x5bac
80301d90:	e3483030 	movt	r3, #32816	; 0x8030
80301d94:	e5933000 	ldr	r3, [r3]
80301d98:	e1520003 	cmp	r2, r3
80301d9c:	9a000004 	bls	80301db4 <vTaskIncrementTick+0x1f4>
80301da0:	e59d3008 	ldr	r3, [sp, #8]
80301da4:	e593202c 	ldr	r2, [r3, #44]	; 0x2c
80301da8:	e3053bac 	movw	r3, #23468	; 0x5bac
80301dac:	e3483030 	movt	r3, #32816	; 0x8030
80301db0:	e5832000 	str	r2, [r3]
80301db4:	e59d3008 	ldr	r3, [sp, #8]
80301db8:	e593202c 	ldr	r2, [r3, #44]	; 0x2c
80301dbc:	e1a03002 	mov	r3, r2
80301dc0:	e1a03103 	lsl	r3, r3, #2
80301dc4:	e0833002 	add	r3, r3, r2
80301dc8:	e1a03103 	lsl	r3, r3, #2
80301dcc:	e3052acc 	movw	r2, #23244	; 0x5acc
80301dd0:	e3482030 	movt	r2, #32816	; 0x8030
80301dd4:	e0832002 	add	r2, r3, r2
80301dd8:	e59d3008 	ldr	r3, [sp, #8]
80301ddc:	e2833004 	add	r3, r3, #4
80301de0:	e1a00002 	mov	r0, r2
80301de4:	e1a01003 	mov	r1, r3
80301de8:	eb00052a 	bl	80303298 <vListInsertEnd>
80301dec:	eaffffb9 	b	80301cd8 <vTaskIncrementTick+0x118>
80301df0:	e3053bb8 	movw	r3, #23480	; 0x5bb8
80301df4:	e3483030 	movt	r3, #32816	; 0x8030
80301df8:	e5933000 	ldr	r3, [r3]
80301dfc:	e2832001 	add	r2, r3, #1
80301e00:	e3053bb8 	movw	r3, #23480	; 0x5bb8
80301e04:	e3483030 	movt	r3, #32816	; 0x8030
80301e08:	e5832000 	str	r2, [r3]
80301e0c:	e28dd014 	add	sp, sp, #20
80301e10:	e8bd8000 	ldmfd	sp!, {pc}

80301e14 <vTaskSwitchContext>:
80301e14:	e24dd008 	sub	sp, sp, #8
80301e18:	e3053bb4 	movw	r3, #23476	; 0x5bb4
80301e1c:	e3483030 	movt	r3, #32816	; 0x8030
80301e20:	e5933000 	ldr	r3, [r3]
80301e24:	e3530000 	cmp	r3, #0
80301e28:	0a00000c 	beq	80301e60 <vTaskSwitchContext+0x4c>
80301e2c:	e3053bbc 	movw	r3, #23484	; 0x5bbc
80301e30:	e3483030 	movt	r3, #32816	; 0x8030
80301e34:	e3a02001 	mov	r2, #1
80301e38:	e5832000 	str	r2, [r3]
80301e3c:	ea000036 	b	80301f1c <vTaskSwitchContext+0x108>
80301e40:	e3053bac 	movw	r3, #23468	; 0x5bac
80301e44:	e3483030 	movt	r3, #32816	; 0x8030
80301e48:	e5933000 	ldr	r3, [r3]
80301e4c:	e2432001 	sub	r2, r3, #1
80301e50:	e3053bac 	movw	r3, #23468	; 0x5bac
80301e54:	e3483030 	movt	r3, #32816	; 0x8030
80301e58:	e5832000 	str	r2, [r3]
80301e5c:	ea000000 	b	80301e64 <vTaskSwitchContext+0x50>
80301e60:	e1a00000 	nop			; (mov r0, r0)
80301e64:	e3053bac 	movw	r3, #23468	; 0x5bac
80301e68:	e3483030 	movt	r3, #32816	; 0x8030
80301e6c:	e5931000 	ldr	r1, [r3]
80301e70:	e3052acc 	movw	r2, #23244	; 0x5acc
80301e74:	e3482030 	movt	r2, #32816	; 0x8030
80301e78:	e1a03001 	mov	r3, r1
80301e7c:	e1a03103 	lsl	r3, r3, #2
80301e80:	e0833001 	add	r3, r3, r1
80301e84:	e1a03103 	lsl	r3, r3, #2
80301e88:	e0823003 	add	r3, r2, r3
80301e8c:	e5933000 	ldr	r3, [r3]
80301e90:	e3530000 	cmp	r3, #0
80301e94:	0affffe9 	beq	80301e40 <vTaskSwitchContext+0x2c>
80301e98:	e3053bac 	movw	r3, #23468	; 0x5bac
80301e9c:	e3483030 	movt	r3, #32816	; 0x8030
80301ea0:	e5932000 	ldr	r2, [r3]
80301ea4:	e1a03002 	mov	r3, r2
80301ea8:	e1a03103 	lsl	r3, r3, #2
80301eac:	e0833002 	add	r3, r3, r2
80301eb0:	e1a03103 	lsl	r3, r3, #2
80301eb4:	e3052acc 	movw	r2, #23244	; 0x5acc
80301eb8:	e3482030 	movt	r2, #32816	; 0x8030
80301ebc:	e0833002 	add	r3, r3, r2
80301ec0:	e58d3004 	str	r3, [sp, #4]
80301ec4:	e59d3004 	ldr	r3, [sp, #4]
80301ec8:	e5933004 	ldr	r3, [r3, #4]
80301ecc:	e5932004 	ldr	r2, [r3, #4]
80301ed0:	e59d3004 	ldr	r3, [sp, #4]
80301ed4:	e5832004 	str	r2, [r3, #4]
80301ed8:	e59d3004 	ldr	r3, [sp, #4]
80301edc:	e5932004 	ldr	r2, [r3, #4]
80301ee0:	e59d3004 	ldr	r3, [sp, #4]
80301ee4:	e2833008 	add	r3, r3, #8
80301ee8:	e1520003 	cmp	r2, r3
80301eec:	1a000004 	bne	80301f04 <vTaskSwitchContext+0xf0>
80301ef0:	e59d3004 	ldr	r3, [sp, #4]
80301ef4:	e5933004 	ldr	r3, [r3, #4]
80301ef8:	e5932004 	ldr	r2, [r3, #4]
80301efc:	e59d3004 	ldr	r3, [sp, #4]
80301f00:	e5832004 	str	r2, [r3, #4]
80301f04:	e59d3004 	ldr	r3, [sp, #4]
80301f08:	e5933004 	ldr	r3, [r3, #4]
80301f0c:	e593200c 	ldr	r2, [r3, #12]
80301f10:	e3053ac8 	movw	r3, #23240	; 0x5ac8
80301f14:	e3483030 	movt	r3, #32816	; 0x8030
80301f18:	e5832000 	str	r2, [r3]
80301f1c:	e28dd008 	add	sp, sp, #8
80301f20:	e12fff1e 	bx	lr

80301f24 <vTaskPlaceOnEventList>:
80301f24:	e52de004 	push	{lr}		; (str lr, [sp, #-4]!)
80301f28:	e24dd014 	sub	sp, sp, #20
80301f2c:	e58d0004 	str	r0, [sp, #4]
80301f30:	e58d1000 	str	r1, [sp]
80301f34:	e3053ac8 	movw	r3, #23240	; 0x5ac8
80301f38:	e3483030 	movt	r3, #32816	; 0x8030
80301f3c:	e5933000 	ldr	r3, [r3]
80301f40:	e2833018 	add	r3, r3, #24
80301f44:	e59d0004 	ldr	r0, [sp, #4]
80301f48:	e1a01003 	mov	r1, r3
80301f4c:	eb0004f3 	bl	80303320 <vListInsert>
80301f50:	e3053ac8 	movw	r3, #23240	; 0x5ac8
80301f54:	e3483030 	movt	r3, #32816	; 0x8030
80301f58:	e5933000 	ldr	r3, [r3]
80301f5c:	e2833004 	add	r3, r3, #4
80301f60:	e1a00003 	mov	r0, r3
80301f64:	eb00051f 	bl	803033e8 <vListRemove>
80301f68:	e59d3000 	ldr	r3, [sp]
80301f6c:	e3730001 	cmn	r3, #1
80301f70:	1a000008 	bne	80301f98 <vTaskPlaceOnEventList+0x74>
80301f74:	e3053ac8 	movw	r3, #23240	; 0x5ac8
80301f78:	e3483030 	movt	r3, #32816	; 0x8030
80301f7c:	e5933000 	ldr	r3, [r3]
80301f80:	e2833004 	add	r3, r3, #4
80301f84:	e3050b8c 	movw	r0, #23436	; 0x5b8c
80301f88:	e3480030 	movt	r0, #32816	; 0x8030
80301f8c:	e1a01003 	mov	r1, r3
80301f90:	eb0004c0 	bl	80303298 <vListInsertEnd>
80301f94:	ea000007 	b	80301fb8 <vTaskPlaceOnEventList+0x94>
80301f98:	e3053ba4 	movw	r3, #23460	; 0x5ba4
80301f9c:	e3483030 	movt	r3, #32816	; 0x8030
80301fa0:	e5932000 	ldr	r2, [r3]
80301fa4:	e59d3000 	ldr	r3, [sp]
80301fa8:	e0823003 	add	r3, r2, r3
80301fac:	e58d300c 	str	r3, [sp, #12]
80301fb0:	e59d000c 	ldr	r0, [sp, #12]
80301fb4:	eb00014c 	bl	803024ec <prvAddCurrentTaskToDelayedList>
80301fb8:	e28dd014 	add	sp, sp, #20
80301fbc:	e8bd8000 	ldmfd	sp!, {pc}

80301fc0 <vTaskPlaceOnEventListRestricted>:
80301fc0:	e52de004 	push	{lr}		; (str lr, [sp, #-4]!)
80301fc4:	e24dd014 	sub	sp, sp, #20
80301fc8:	e58d0004 	str	r0, [sp, #4]
80301fcc:	e58d1000 	str	r1, [sp]
80301fd0:	e3053ac8 	movw	r3, #23240	; 0x5ac8
80301fd4:	e3483030 	movt	r3, #32816	; 0x8030
80301fd8:	e5933000 	ldr	r3, [r3]
80301fdc:	e2833018 	add	r3, r3, #24
80301fe0:	e59d0004 	ldr	r0, [sp, #4]
80301fe4:	e1a01003 	mov	r1, r3
80301fe8:	eb0004aa 	bl	80303298 <vListInsertEnd>
80301fec:	e3053ac8 	movw	r3, #23240	; 0x5ac8
80301ff0:	e3483030 	movt	r3, #32816	; 0x8030
80301ff4:	e5933000 	ldr	r3, [r3]
80301ff8:	e2833004 	add	r3, r3, #4
80301ffc:	e1a00003 	mov	r0, r3
80302000:	eb0004f8 	bl	803033e8 <vListRemove>
80302004:	e3053ba4 	movw	r3, #23460	; 0x5ba4
80302008:	e3483030 	movt	r3, #32816	; 0x8030
8030200c:	e5932000 	ldr	r2, [r3]
80302010:	e59d3000 	ldr	r3, [sp]
80302014:	e0823003 	add	r3, r2, r3
80302018:	e58d300c 	str	r3, [sp, #12]
8030201c:	e59d000c 	ldr	r0, [sp, #12]
80302020:	eb000131 	bl	803024ec <prvAddCurrentTaskToDelayedList>
80302024:	e28dd014 	add	sp, sp, #20
80302028:	e8bd8000 	ldmfd	sp!, {pc}

8030202c <xTaskRemoveFromEventList>:
8030202c:	e52de004 	push	{lr}		; (str lr, [sp, #-4]!)
80302030:	e24dd014 	sub	sp, sp, #20
80302034:	e58d0004 	str	r0, [sp, #4]
80302038:	e59d3004 	ldr	r3, [sp, #4]
8030203c:	e593300c 	ldr	r3, [r3, #12]
80302040:	e593300c 	ldr	r3, [r3, #12]
80302044:	e58d3008 	str	r3, [sp, #8]
80302048:	e59d3008 	ldr	r3, [sp, #8]
8030204c:	e2833018 	add	r3, r3, #24
80302050:	e1a00003 	mov	r0, r3
80302054:	eb0004e3 	bl	803033e8 <vListRemove>
80302058:	e3053bb4 	movw	r3, #23476	; 0x5bb4
8030205c:	e3483030 	movt	r3, #32816	; 0x8030
80302060:	e5933000 	ldr	r3, [r3]
80302064:	e3530000 	cmp	r3, #0
80302068:	1a00001e 	bne	803020e8 <xTaskRemoveFromEventList+0xbc>
8030206c:	e59d3008 	ldr	r3, [sp, #8]
80302070:	e2833004 	add	r3, r3, #4
80302074:	e1a00003 	mov	r0, r3
80302078:	eb0004da 	bl	803033e8 <vListRemove>
8030207c:	e59d3008 	ldr	r3, [sp, #8]
80302080:	e593202c 	ldr	r2, [r3, #44]	; 0x2c
80302084:	e3053bac 	movw	r3, #23468	; 0x5bac
80302088:	e3483030 	movt	r3, #32816	; 0x8030
8030208c:	e5933000 	ldr	r3, [r3]
80302090:	e1520003 	cmp	r2, r3
80302094:	9a000004 	bls	803020ac <xTaskRemoveFromEventList+0x80>
80302098:	e59d3008 	ldr	r3, [sp, #8]
8030209c:	e593202c 	ldr	r2, [r3, #44]	; 0x2c
803020a0:	e3053bac 	movw	r3, #23468	; 0x5bac
803020a4:	e3483030 	movt	r3, #32816	; 0x8030
803020a8:	e5832000 	str	r2, [r3]
803020ac:	e59d3008 	ldr	r3, [sp, #8]
803020b0:	e593202c 	ldr	r2, [r3, #44]	; 0x2c
803020b4:	e1a03002 	mov	r3, r2
803020b8:	e1a03103 	lsl	r3, r3, #2
803020bc:	e0833002 	add	r3, r3, r2
803020c0:	e1a03103 	lsl	r3, r3, #2
803020c4:	e3052acc 	movw	r2, #23244	; 0x5acc
803020c8:	e3482030 	movt	r2, #32816	; 0x8030
803020cc:	e0832002 	add	r2, r3, r2
803020d0:	e59d3008 	ldr	r3, [sp, #8]
803020d4:	e2833004 	add	r3, r3, #4
803020d8:	e1a00002 	mov	r0, r2
803020dc:	e1a01003 	mov	r1, r3
803020e0:	eb00046c 	bl	80303298 <vListInsertEnd>
803020e4:	ea000005 	b	80302100 <xTaskRemoveFromEventList+0xd4>
803020e8:	e59d3008 	ldr	r3, [sp, #8]
803020ec:	e2833018 	add	r3, r3, #24
803020f0:	e3050b60 	movw	r0, #23392	; 0x5b60
803020f4:	e3480030 	movt	r0, #32816	; 0x8030
803020f8:	e1a01003 	mov	r1, r3
803020fc:	eb000465 	bl	80303298 <vListInsertEnd>
80302100:	e59d3008 	ldr	r3, [sp, #8]
80302104:	e593202c 	ldr	r2, [r3, #44]	; 0x2c
80302108:	e3053ac8 	movw	r3, #23240	; 0x5ac8
8030210c:	e3483030 	movt	r3, #32816	; 0x8030
80302110:	e5933000 	ldr	r3, [r3]
80302114:	e593302c 	ldr	r3, [r3, #44]	; 0x2c
80302118:	e1520003 	cmp	r2, r3
8030211c:	3a000002 	bcc	8030212c <xTaskRemoveFromEventList+0x100>
80302120:	e3a03001 	mov	r3, #1
80302124:	e58d300c 	str	r3, [sp, #12]
80302128:	ea000001 	b	80302134 <xTaskRemoveFromEventList+0x108>
8030212c:	e3a03000 	mov	r3, #0
80302130:	e58d300c 	str	r3, [sp, #12]
80302134:	e59d300c 	ldr	r3, [sp, #12]
80302138:	e1a00003 	mov	r0, r3
8030213c:	e28dd014 	add	sp, sp, #20
80302140:	e8bd8000 	ldmfd	sp!, {pc}

80302144 <vTaskSetTimeOutState>:
80302144:	e24dd008 	sub	sp, sp, #8
80302148:	e58d0004 	str	r0, [sp, #4]
8030214c:	e3053bc0 	movw	r3, #23488	; 0x5bc0
80302150:	e3483030 	movt	r3, #32816	; 0x8030
80302154:	e5932000 	ldr	r2, [r3]
80302158:	e59d3004 	ldr	r3, [sp, #4]
8030215c:	e5832000 	str	r2, [r3]
80302160:	e3053ba4 	movw	r3, #23460	; 0x5ba4
80302164:	e3483030 	movt	r3, #32816	; 0x8030
80302168:	e5932000 	ldr	r2, [r3]
8030216c:	e59d3004 	ldr	r3, [sp, #4]
80302170:	e5832004 	str	r2, [r3, #4]
80302174:	e28dd008 	add	sp, sp, #8
80302178:	e12fff1e 	bx	lr

8030217c <xTaskCheckForTimeOut>:
8030217c:	e52de004 	push	{lr}		; (str lr, [sp, #-4]!)
80302180:	e24dd014 	sub	sp, sp, #20
80302184:	e58d0004 	str	r0, [sp, #4]
80302188:	e58d1000 	str	r1, [sp]
8030218c:	ebfff82d 	bl	80300248 <vPortEnterCritical>
80302190:	e59d3000 	ldr	r3, [sp]
80302194:	e5933000 	ldr	r3, [r3]
80302198:	e3730001 	cmn	r3, #1
8030219c:	1a000002 	bne	803021ac <xTaskCheckForTimeOut+0x30>
803021a0:	e3a03000 	mov	r3, #0
803021a4:	e58d300c 	str	r3, [sp, #12]
803021a8:	ea00002c 	b	80302260 <xTaskCheckForTimeOut+0xe4>
803021ac:	e59d3004 	ldr	r3, [sp, #4]
803021b0:	e5932000 	ldr	r2, [r3]
803021b4:	e3053bc0 	movw	r3, #23488	; 0x5bc0
803021b8:	e3483030 	movt	r3, #32816	; 0x8030
803021bc:	e5933000 	ldr	r3, [r3]
803021c0:	e1520003 	cmp	r2, r3
803021c4:	0a000009 	beq	803021f0 <xTaskCheckForTimeOut+0x74>
803021c8:	e59d3004 	ldr	r3, [sp, #4]
803021cc:	e5932004 	ldr	r2, [r3, #4]
803021d0:	e3053ba4 	movw	r3, #23460	; 0x5ba4
803021d4:	e3483030 	movt	r3, #32816	; 0x8030
803021d8:	e5933000 	ldr	r3, [r3]
803021dc:	e1520003 	cmp	r2, r3
803021e0:	8a000002 	bhi	803021f0 <xTaskCheckForTimeOut+0x74>
803021e4:	e3a03001 	mov	r3, #1
803021e8:	e58d300c 	str	r3, [sp, #12]
803021ec:	ea00001b 	b	80302260 <xTaskCheckForTimeOut+0xe4>
803021f0:	e3053ba4 	movw	r3, #23460	; 0x5ba4
803021f4:	e3483030 	movt	r3, #32816	; 0x8030
803021f8:	e5932000 	ldr	r2, [r3]
803021fc:	e59d3004 	ldr	r3, [sp, #4]
80302200:	e5933004 	ldr	r3, [r3, #4]
80302204:	e0632002 	rsb	r2, r3, r2
80302208:	e59d3000 	ldr	r3, [sp]
8030220c:	e5933000 	ldr	r3, [r3]
80302210:	e1520003 	cmp	r2, r3
80302214:	2a00000f 	bcs	80302258 <xTaskCheckForTimeOut+0xdc>
80302218:	e59d3000 	ldr	r3, [sp]
8030221c:	e5932000 	ldr	r2, [r3]
80302220:	e59d3004 	ldr	r3, [sp, #4]
80302224:	e5931004 	ldr	r1, [r3, #4]
80302228:	e3053ba4 	movw	r3, #23460	; 0x5ba4
8030222c:	e3483030 	movt	r3, #32816	; 0x8030
80302230:	e5933000 	ldr	r3, [r3]
80302234:	e0633001 	rsb	r3, r3, r1
80302238:	e0822003 	add	r2, r2, r3
8030223c:	e59d3000 	ldr	r3, [sp]
80302240:	e5832000 	str	r2, [r3]
80302244:	e59d0004 	ldr	r0, [sp, #4]
80302248:	ebffffbd 	bl	80302144 <vTaskSetTimeOutState>
8030224c:	e3a03000 	mov	r3, #0
80302250:	e58d300c 	str	r3, [sp, #12]
80302254:	ea000001 	b	80302260 <xTaskCheckForTimeOut+0xe4>
80302258:	e3a03001 	mov	r3, #1
8030225c:	e58d300c 	str	r3, [sp, #12]
80302260:	ebfff805 	bl	8030027c <vPortExitCritical>
80302264:	e59d300c 	ldr	r3, [sp, #12]
80302268:	e1a00003 	mov	r0, r3
8030226c:	e28dd014 	add	sp, sp, #20
80302270:	e8bd8000 	ldmfd	sp!, {pc}

80302274 <vTaskMissedYield>:
80302274:	e3053bbc 	movw	r3, #23484	; 0x5bbc
80302278:	e3483030 	movt	r3, #32816	; 0x8030
8030227c:	e3a02001 	mov	r2, #1
80302280:	e5832000 	str	r2, [r3]
80302284:	e12fff1e 	bx	lr

80302288 <prvIdleTask>:
80302288:	e52de004 	push	{lr}		; (str lr, [sp, #-4]!)
8030228c:	e24dd00c 	sub	sp, sp, #12
80302290:	e58d0004 	str	r0, [sp, #4]
80302294:	ea000000 	b	8030229c <prvIdleTask+0x14>
80302298:	e1a00000 	nop			; (mov r0, r0)
8030229c:	eb000061 	bl	80302428 <prvCheckTasksWaitingTermination>
803022a0:	e3053acc 	movw	r3, #23244	; 0x5acc
803022a4:	e3483030 	movt	r3, #32816	; 0x8030
803022a8:	e5933000 	ldr	r3, [r3]
803022ac:	e3530001 	cmp	r3, #1
803022b0:	9afffff8 	bls	80302298 <prvIdleTask+0x10>
803022b4:	ef000000 	svc	0x00000000
803022b8:	eafffff6 	b	80302298 <prvIdleTask+0x10>

803022bc <prvInitialiseTCBVariables>:
803022bc:	e52de004 	push	{lr}		; (str lr, [sp, #-4]!)
803022c0:	e24dd014 	sub	sp, sp, #20
803022c4:	e58d000c 	str	r0, [sp, #12]
803022c8:	e58d1008 	str	r1, [sp, #8]
803022cc:	e58d2004 	str	r2, [sp, #4]
803022d0:	e58d3000 	str	r3, [sp]
803022d4:	e59d300c 	ldr	r3, [sp, #12]
803022d8:	e2833034 	add	r3, r3, #52	; 0x34
803022dc:	e1a00003 	mov	r0, r3
803022e0:	e59d1008 	ldr	r1, [sp, #8]
803022e4:	e3a02010 	mov	r2, #16
803022e8:	eb000d14 	bl	80305740 <strncpy>
803022ec:	e59d300c 	ldr	r3, [sp, #12]
803022f0:	e3a02000 	mov	r2, #0
803022f4:	e5c32043 	strb	r2, [r3, #67]	; 0x43
803022f8:	e59d3004 	ldr	r3, [sp, #4]
803022fc:	e3530004 	cmp	r3, #4
80302300:	9a000001 	bls	8030230c <prvInitialiseTCBVariables+0x50>
80302304:	e3a03004 	mov	r3, #4
80302308:	e58d3004 	str	r3, [sp, #4]
8030230c:	e59d300c 	ldr	r3, [sp, #12]
80302310:	e59d2004 	ldr	r2, [sp, #4]
80302314:	e583202c 	str	r2, [r3, #44]	; 0x2c
80302318:	e59d300c 	ldr	r3, [sp, #12]
8030231c:	e2833004 	add	r3, r3, #4
80302320:	e1a00003 	mov	r0, r3
80302324:	eb0003d4 	bl	8030327c <vListInitialiseItem>
80302328:	e59d300c 	ldr	r3, [sp, #12]
8030232c:	e2833018 	add	r3, r3, #24
80302330:	e1a00003 	mov	r0, r3
80302334:	eb0003d0 	bl	8030327c <vListInitialiseItem>
80302338:	e59d300c 	ldr	r3, [sp, #12]
8030233c:	e59d200c 	ldr	r2, [sp, #12]
80302340:	e5832010 	str	r2, [r3, #16]
80302344:	e59d3004 	ldr	r3, [sp, #4]
80302348:	e2632005 	rsb	r2, r3, #5
8030234c:	e59d300c 	ldr	r3, [sp, #12]
80302350:	e5832018 	str	r2, [r3, #24]
80302354:	e59d300c 	ldr	r3, [sp, #12]
80302358:	e59d200c 	ldr	r2, [sp, #12]
8030235c:	e5832024 	str	r2, [r3, #36]	; 0x24
80302360:	e28dd014 	add	sp, sp, #20
80302364:	e8bd8000 	ldmfd	sp!, {pc}

80302368 <prvInitialiseTaskLists>:
80302368:	e52de004 	push	{lr}		; (str lr, [sp, #-4]!)
8030236c:	e24dd00c 	sub	sp, sp, #12
80302370:	e3a03000 	mov	r3, #0
80302374:	e58d3004 	str	r3, [sp, #4]
80302378:	ea00000c 	b	803023b0 <prvInitialiseTaskLists+0x48>
8030237c:	e59d2004 	ldr	r2, [sp, #4]
80302380:	e1a03002 	mov	r3, r2
80302384:	e1a03103 	lsl	r3, r3, #2
80302388:	e0833002 	add	r3, r3, r2
8030238c:	e1a03103 	lsl	r3, r3, #2
80302390:	e3052acc 	movw	r2, #23244	; 0x5acc
80302394:	e3482030 	movt	r2, #32816	; 0x8030
80302398:	e0833002 	add	r3, r3, r2
8030239c:	e1a00003 	mov	r0, r3
803023a0:	eb00039f 	bl	80303224 <vListInitialise>
803023a4:	e59d3004 	ldr	r3, [sp, #4]
803023a8:	e2833001 	add	r3, r3, #1
803023ac:	e58d3004 	str	r3, [sp, #4]
803023b0:	e59d3004 	ldr	r3, [sp, #4]
803023b4:	e3530004 	cmp	r3, #4
803023b8:	9affffef 	bls	8030237c <prvInitialiseTaskLists+0x14>
803023bc:	e3050b30 	movw	r0, #23344	; 0x5b30
803023c0:	e3480030 	movt	r0, #32816	; 0x8030
803023c4:	eb000396 	bl	80303224 <vListInitialise>
803023c8:	e3050b44 	movw	r0, #23364	; 0x5b44
803023cc:	e3480030 	movt	r0, #32816	; 0x8030
803023d0:	eb000393 	bl	80303224 <vListInitialise>
803023d4:	e3050b60 	movw	r0, #23392	; 0x5b60
803023d8:	e3480030 	movt	r0, #32816	; 0x8030
803023dc:	eb000390 	bl	80303224 <vListInitialise>
803023e0:	e3050b74 	movw	r0, #23412	; 0x5b74
803023e4:	e3480030 	movt	r0, #32816	; 0x8030
803023e8:	eb00038d 	bl	80303224 <vListInitialise>
803023ec:	e3050b8c 	movw	r0, #23436	; 0x5b8c
803023f0:	e3480030 	movt	r0, #32816	; 0x8030
803023f4:	eb00038a 	bl	80303224 <vListInitialise>
803023f8:	e3053b58 	movw	r3, #23384	; 0x5b58
803023fc:	e3483030 	movt	r3, #32816	; 0x8030
80302400:	e3052b30 	movw	r2, #23344	; 0x5b30
80302404:	e3482030 	movt	r2, #32816	; 0x8030
80302408:	e5832000 	str	r2, [r3]
8030240c:	e3053b5c 	movw	r3, #23388	; 0x5b5c
80302410:	e3483030 	movt	r3, #32816	; 0x8030
80302414:	e3052b44 	movw	r2, #23364	; 0x5b44
80302418:	e3482030 	movt	r2, #32816	; 0x8030
8030241c:	e5832000 	str	r2, [r3]
80302420:	e28dd00c 	add	sp, sp, #12
80302424:	e8bd8000 	ldmfd	sp!, {pc}

80302428 <prvCheckTasksWaitingTermination>:
80302428:	e52de004 	push	{lr}		; (str lr, [sp, #-4]!)
8030242c:	e24dd00c 	sub	sp, sp, #12
80302430:	e3053b88 	movw	r3, #23432	; 0x5b88
80302434:	e3483030 	movt	r3, #32816	; 0x8030
80302438:	e5933000 	ldr	r3, [r3]
8030243c:	e3530000 	cmp	r3, #0
80302440:	0a000026 	beq	803024e0 <prvCheckTasksWaitingTermination+0xb8>
80302444:	ebfffd49 	bl	80301970 <vTaskSuspendAll>
80302448:	e3053b74 	movw	r3, #23412	; 0x5b74
8030244c:	e3483030 	movt	r3, #32816	; 0x8030
80302450:	e5933000 	ldr	r3, [r3]
80302454:	e3530000 	cmp	r3, #0
80302458:	13a03000 	movne	r3, #0
8030245c:	03a03001 	moveq	r3, #1
80302460:	e6ef3073 	uxtb	r3, r3
80302464:	e58d3004 	str	r3, [sp, #4]
80302468:	ebfffd48 	bl	80301990 <xTaskResumeAll>
8030246c:	e59d3004 	ldr	r3, [sp, #4]
80302470:	e3530000 	cmp	r3, #0
80302474:	1a000019 	bne	803024e0 <prvCheckTasksWaitingTermination+0xb8>
80302478:	ebfff772 	bl	80300248 <vPortEnterCritical>
8030247c:	e59f3064 	ldr	r3, [pc, #100]	; 803024e8 <prvCheckTasksWaitingTermination+0xc0>
80302480:	e5933004 	ldr	r3, [r3, #4]
80302484:	e593300c 	ldr	r3, [r3, #12]
80302488:	e58d3000 	str	r3, [sp]
8030248c:	e59d3000 	ldr	r3, [sp]
80302490:	e2833004 	add	r3, r3, #4
80302494:	e1a00003 	mov	r0, r3
80302498:	eb0003d2 	bl	803033e8 <vListRemove>
8030249c:	e3053ba0 	movw	r3, #23456	; 0x5ba0
803024a0:	e3483030 	movt	r3, #32816	; 0x8030
803024a4:	e5933000 	ldr	r3, [r3]
803024a8:	e2432001 	sub	r2, r3, #1
803024ac:	e3053ba0 	movw	r3, #23456	; 0x5ba0
803024b0:	e3483030 	movt	r3, #32816	; 0x8030
803024b4:	e5832000 	str	r2, [r3]
803024b8:	e3053b88 	movw	r3, #23432	; 0x5b88
803024bc:	e3483030 	movt	r3, #32816	; 0x8030
803024c0:	e5933000 	ldr	r3, [r3]
803024c4:	e2432001 	sub	r2, r3, #1
803024c8:	e3053b88 	movw	r3, #23432	; 0x5b88
803024cc:	e3483030 	movt	r3, #32816	; 0x8030
803024d0:	e5832000 	str	r2, [r3]
803024d4:	ebfff768 	bl	8030027c <vPortExitCritical>
803024d8:	e59d0000 	ldr	r0, [sp]
803024dc:	eb00005d 	bl	80302658 <prvDeleteTCB>
803024e0:	e28dd00c 	add	sp, sp, #12
803024e4:	e8bd8000 	ldmfd	sp!, {pc}
803024e8:	80305b7c 	.word	0x80305b7c

803024ec <prvAddCurrentTaskToDelayedList>:
803024ec:	e52de004 	push	{lr}		; (str lr, [sp, #-4]!)
803024f0:	e24dd00c 	sub	sp, sp, #12
803024f4:	e58d0004 	str	r0, [sp, #4]
803024f8:	e3053ac8 	movw	r3, #23240	; 0x5ac8
803024fc:	e3483030 	movt	r3, #32816	; 0x8030
80302500:	e5933000 	ldr	r3, [r3]
80302504:	e59d2004 	ldr	r2, [sp, #4]
80302508:	e5832004 	str	r2, [r3, #4]
8030250c:	e3053ba4 	movw	r3, #23460	; 0x5ba4
80302510:	e3483030 	movt	r3, #32816	; 0x8030
80302514:	e5933000 	ldr	r3, [r3]
80302518:	e59d2004 	ldr	r2, [sp, #4]
8030251c:	e1520003 	cmp	r2, r3
80302520:	2a00000a 	bcs	80302550 <prvAddCurrentTaskToDelayedList+0x64>
80302524:	e3053b5c 	movw	r3, #23388	; 0x5b5c
80302528:	e3483030 	movt	r3, #32816	; 0x8030
8030252c:	e5932000 	ldr	r2, [r3]
80302530:	e3053ac8 	movw	r3, #23240	; 0x5ac8
80302534:	e3483030 	movt	r3, #32816	; 0x8030
80302538:	e5933000 	ldr	r3, [r3]
8030253c:	e2833004 	add	r3, r3, #4
80302540:	e1a00002 	mov	r0, r2
80302544:	e1a01003 	mov	r1, r3
80302548:	eb000374 	bl	80303320 <vListInsert>
8030254c:	ea000013 	b	803025a0 <prvAddCurrentTaskToDelayedList+0xb4>
80302550:	e3053b58 	movw	r3, #23384	; 0x5b58
80302554:	e3483030 	movt	r3, #32816	; 0x8030
80302558:	e5932000 	ldr	r2, [r3]
8030255c:	e3053ac8 	movw	r3, #23240	; 0x5ac8
80302560:	e3483030 	movt	r3, #32816	; 0x8030
80302564:	e5933000 	ldr	r3, [r3]
80302568:	e2833004 	add	r3, r3, #4
8030256c:	e1a00002 	mov	r0, r2
80302570:	e1a01003 	mov	r1, r3
80302574:	eb000369 	bl	80303320 <vListInsert>
80302578:	e3053a80 	movw	r3, #23168	; 0x5a80
8030257c:	e3483030 	movt	r3, #32816	; 0x8030
80302580:	e5933000 	ldr	r3, [r3]
80302584:	e59d2004 	ldr	r2, [sp, #4]
80302588:	e1520003 	cmp	r2, r3
8030258c:	2a000003 	bcs	803025a0 <prvAddCurrentTaskToDelayedList+0xb4>
80302590:	e3053a80 	movw	r3, #23168	; 0x5a80
80302594:	e3483030 	movt	r3, #32816	; 0x8030
80302598:	e59d2004 	ldr	r2, [sp, #4]
8030259c:	e5832000 	str	r2, [r3]
803025a0:	e28dd00c 	add	sp, sp, #12
803025a4:	e8bd8000 	ldmfd	sp!, {pc}

803025a8 <prvAllocateTCBAndStack>:
803025a8:	e52de004 	push	{lr}		; (str lr, [sp, #-4]!)
803025ac:	e24dd014 	sub	sp, sp, #20
803025b0:	e1a03000 	mov	r3, r0
803025b4:	e58d1000 	str	r1, [sp]
803025b8:	e1cd30b6 	strh	r3, [sp, #6]
803025bc:	e3a00044 	mov	r0, #68	; 0x44
803025c0:	eb0003aa 	bl	80303470 <pvPortMalloc>
803025c4:	e58d000c 	str	r0, [sp, #12]
803025c8:	e59d300c 	ldr	r3, [sp, #12]
803025cc:	e3530000 	cmp	r3, #0
803025d0:	0a00001c 	beq	80302648 <prvAllocateTCBAndStack+0xa0>
803025d4:	e59d3000 	ldr	r3, [sp]
803025d8:	e3530000 	cmp	r3, #0
803025dc:	1a000005 	bne	803025f8 <prvAllocateTCBAndStack+0x50>
803025e0:	e1dd30b6 	ldrh	r3, [sp, #6]
803025e4:	e1a03103 	lsl	r3, r3, #2
803025e8:	e1a00003 	mov	r0, r3
803025ec:	eb00039f 	bl	80303470 <pvPortMalloc>
803025f0:	e1a03000 	mov	r3, r0
803025f4:	ea000000 	b	803025fc <prvAllocateTCBAndStack+0x54>
803025f8:	e59d3000 	ldr	r3, [sp]
803025fc:	e59d200c 	ldr	r2, [sp, #12]
80302600:	e5823030 	str	r3, [r2, #48]	; 0x30
80302604:	e59d300c 	ldr	r3, [sp, #12]
80302608:	e5933030 	ldr	r3, [r3, #48]	; 0x30
8030260c:	e3530000 	cmp	r3, #0
80302610:	1a000004 	bne	80302628 <prvAllocateTCBAndStack+0x80>
80302614:	e59d000c 	ldr	r0, [sp, #12]
80302618:	eb000438 	bl	80303700 <vPortFree>
8030261c:	e3a03000 	mov	r3, #0
80302620:	e58d300c 	str	r3, [sp, #12]
80302624:	ea000007 	b	80302648 <prvAllocateTCBAndStack+0xa0>
80302628:	e59d300c 	ldr	r3, [sp, #12]
8030262c:	e5932030 	ldr	r2, [r3, #48]	; 0x30
80302630:	e1dd30b6 	ldrh	r3, [sp, #6]
80302634:	e1a03103 	lsl	r3, r3, #2
80302638:	e1a00002 	mov	r0, r2
8030263c:	e3a010a5 	mov	r1, #165	; 0xa5
80302640:	e1a02003 	mov	r2, r3
80302644:	eb000bf0 	bl	8030560c <memset>
80302648:	e59d300c 	ldr	r3, [sp, #12]
8030264c:	e1a00003 	mov	r0, r3
80302650:	e28dd014 	add	sp, sp, #20
80302654:	e8bd8000 	ldmfd	sp!, {pc}

80302658 <prvDeleteTCB>:
80302658:	e52de004 	push	{lr}		; (str lr, [sp, #-4]!)
8030265c:	e24dd00c 	sub	sp, sp, #12
80302660:	e58d0004 	str	r0, [sp, #4]
80302664:	e59d3004 	ldr	r3, [sp, #4]
80302668:	e5933030 	ldr	r3, [r3, #48]	; 0x30
8030266c:	e1a00003 	mov	r0, r3
80302670:	eb000422 	bl	80303700 <vPortFree>
80302674:	e59d0004 	ldr	r0, [sp, #4]
80302678:	eb000420 	bl	80303700 <vPortFree>
8030267c:	e28dd00c 	add	sp, sp, #12
80302680:	e8bd8000 	ldmfd	sp!, {pc}

80302684 <xTaskGetSchedulerState>:
80302684:	e24dd008 	sub	sp, sp, #8
80302688:	e3053bb0 	movw	r3, #23472	; 0x5bb0
8030268c:	e3483030 	movt	r3, #32816	; 0x8030
80302690:	e5933000 	ldr	r3, [r3]
80302694:	e3530000 	cmp	r3, #0
80302698:	1a000002 	bne	803026a8 <xTaskGetSchedulerState+0x24>
8030269c:	e3a03000 	mov	r3, #0
803026a0:	e58d3004 	str	r3, [sp, #4]
803026a4:	ea000009 	b	803026d0 <xTaskGetSchedulerState+0x4c>
803026a8:	e3053bb4 	movw	r3, #23476	; 0x5bb4
803026ac:	e3483030 	movt	r3, #32816	; 0x8030
803026b0:	e5933000 	ldr	r3, [r3]
803026b4:	e3530000 	cmp	r3, #0
803026b8:	1a000002 	bne	803026c8 <xTaskGetSchedulerState+0x44>
803026bc:	e3a03001 	mov	r3, #1
803026c0:	e58d3004 	str	r3, [sp, #4]
803026c4:	ea000001 	b	803026d0 <xTaskGetSchedulerState+0x4c>
803026c8:	e3a03002 	mov	r3, #2
803026cc:	e58d3004 	str	r3, [sp, #4]
803026d0:	e59d3004 	ldr	r3, [sp, #4]
803026d4:	e1a00003 	mov	r0, r3
803026d8:	e28dd008 	add	sp, sp, #8
803026dc:	e12fff1e 	bx	lr

803026e0 <xQueueCreate>:
803026e0:	e52de004 	push	{lr}		; (str lr, [sp, #-4]!)
803026e4:	e24dd01c 	sub	sp, sp, #28
803026e8:	e58d0004 	str	r0, [sp, #4]
803026ec:	e58d1000 	str	r1, [sp]
803026f0:	e3a03000 	mov	r3, #0
803026f4:	e58d3014 	str	r3, [sp, #20]
803026f8:	e59d3004 	ldr	r3, [sp, #4]
803026fc:	e3530000 	cmp	r3, #0
80302700:	0a000044 	beq	80302818 <xQueueCreate+0x138>
80302704:	e3a0004c 	mov	r0, #76	; 0x4c
80302708:	eb000358 	bl	80303470 <pvPortMalloc>
8030270c:	e58d0010 	str	r0, [sp, #16]
80302710:	e59d3010 	ldr	r3, [sp, #16]
80302714:	e3530000 	cmp	r3, #0
80302718:	0a00003e 	beq	80302818 <xQueueCreate+0x138>
8030271c:	e59d3004 	ldr	r3, [sp, #4]
80302720:	e59d2000 	ldr	r2, [sp]
80302724:	e0030392 	mul	r3, r2, r3
80302728:	e2833001 	add	r3, r3, #1
8030272c:	e58d300c 	str	r3, [sp, #12]
80302730:	e59d000c 	ldr	r0, [sp, #12]
80302734:	eb00034d 	bl	80303470 <pvPortMalloc>
80302738:	e1a02000 	mov	r2, r0
8030273c:	e59d3010 	ldr	r3, [sp, #16]
80302740:	e5832000 	str	r2, [r3]
80302744:	e59d3010 	ldr	r3, [sp, #16]
80302748:	e5933000 	ldr	r3, [r3]
8030274c:	e3530000 	cmp	r3, #0
80302750:	0a00002e 	beq	80302810 <xQueueCreate+0x130>
80302754:	e59d3010 	ldr	r3, [sp, #16]
80302758:	e5932000 	ldr	r2, [r3]
8030275c:	e59d3004 	ldr	r3, [sp, #4]
80302760:	e59d1000 	ldr	r1, [sp]
80302764:	e0030391 	mul	r3, r1, r3
80302768:	e0822003 	add	r2, r2, r3
8030276c:	e59d3010 	ldr	r3, [sp, #16]
80302770:	e5832004 	str	r2, [r3, #4]
80302774:	e59d3010 	ldr	r3, [sp, #16]
80302778:	e3a02000 	mov	r2, #0
8030277c:	e5832038 	str	r2, [r3, #56]	; 0x38
80302780:	e59d3010 	ldr	r3, [sp, #16]
80302784:	e5932000 	ldr	r2, [r3]
80302788:	e59d3010 	ldr	r3, [sp, #16]
8030278c:	e5832008 	str	r2, [r3, #8]
80302790:	e59d3010 	ldr	r3, [sp, #16]
80302794:	e5932000 	ldr	r2, [r3]
80302798:	e59d3004 	ldr	r3, [sp, #4]
8030279c:	e2433001 	sub	r3, r3, #1
803027a0:	e59d1000 	ldr	r1, [sp]
803027a4:	e0030391 	mul	r3, r1, r3
803027a8:	e0822003 	add	r2, r2, r3
803027ac:	e59d3010 	ldr	r3, [sp, #16]
803027b0:	e583200c 	str	r2, [r3, #12]
803027b4:	e59d3010 	ldr	r3, [sp, #16]
803027b8:	e59d2004 	ldr	r2, [sp, #4]
803027bc:	e583203c 	str	r2, [r3, #60]	; 0x3c
803027c0:	e59d3010 	ldr	r3, [sp, #16]
803027c4:	e59d2000 	ldr	r2, [sp]
803027c8:	e5832040 	str	r2, [r3, #64]	; 0x40
803027cc:	e59d3010 	ldr	r3, [sp, #16]
803027d0:	e3e02000 	mvn	r2, #0
803027d4:	e5832044 	str	r2, [r3, #68]	; 0x44
803027d8:	e59d3010 	ldr	r3, [sp, #16]
803027dc:	e3e02000 	mvn	r2, #0
803027e0:	e5832048 	str	r2, [r3, #72]	; 0x48
803027e4:	e59d3010 	ldr	r3, [sp, #16]
803027e8:	e2833010 	add	r3, r3, #16
803027ec:	e1a00003 	mov	r0, r3
803027f0:	eb00028b 	bl	80303224 <vListInitialise>
803027f4:	e59d3010 	ldr	r3, [sp, #16]
803027f8:	e2833024 	add	r3, r3, #36	; 0x24
803027fc:	e1a00003 	mov	r0, r3
80302800:	eb000287 	bl	80303224 <vListInitialise>
80302804:	e59d3010 	ldr	r3, [sp, #16]
80302808:	e58d3014 	str	r3, [sp, #20]
8030280c:	ea000001 	b	80302818 <xQueueCreate+0x138>
80302810:	e59d0010 	ldr	r0, [sp, #16]
80302814:	eb0003b9 	bl	80303700 <vPortFree>
80302818:	e59d3014 	ldr	r3, [sp, #20]
8030281c:	e1a00003 	mov	r0, r3
80302820:	e28dd01c 	add	sp, sp, #28
80302824:	e8bd8000 	ldmfd	sp!, {pc}

80302828 <xQueueGenericSend>:
80302828:	e52de004 	push	{lr}		; (str lr, [sp, #-4]!)
8030282c:	e24dd024 	sub	sp, sp, #36	; 0x24
80302830:	e58d000c 	str	r0, [sp, #12]
80302834:	e58d1008 	str	r1, [sp, #8]
80302838:	e58d2004 	str	r2, [sp, #4]
8030283c:	e58d3000 	str	r3, [sp]
80302840:	e3a03000 	mov	r3, #0
80302844:	e58d301c 	str	r3, [sp, #28]
80302848:	ea000000 	b	80302850 <xQueueGenericSend+0x28>
8030284c:	e1a00000 	nop			; (mov r0, r0)
80302850:	ebfff67c 	bl	80300248 <vPortEnterCritical>
80302854:	e59d300c 	ldr	r3, [sp, #12]
80302858:	e5932038 	ldr	r2, [r3, #56]	; 0x38
8030285c:	e59d300c 	ldr	r3, [sp, #12]
80302860:	e593303c 	ldr	r3, [r3, #60]	; 0x3c
80302864:	e1520003 	cmp	r2, r3
80302868:	2a000012 	bcs	803028b8 <xQueueGenericSend+0x90>
8030286c:	e59d000c 	ldr	r0, [sp, #12]
80302870:	e59d1008 	ldr	r1, [sp, #8]
80302874:	e59d2000 	ldr	r2, [sp]
80302878:	eb00015d 	bl	80302df4 <prvCopyDataToQueue>
8030287c:	e59d300c 	ldr	r3, [sp, #12]
80302880:	e5933024 	ldr	r3, [r3, #36]	; 0x24
80302884:	e3530000 	cmp	r3, #0
80302888:	0a000007 	beq	803028ac <xQueueGenericSend+0x84>
8030288c:	e59d300c 	ldr	r3, [sp, #12]
80302890:	e2833024 	add	r3, r3, #36	; 0x24
80302894:	e1a00003 	mov	r0, r3
80302898:	ebfffde3 	bl	8030202c <xTaskRemoveFromEventList>
8030289c:	e1a03000 	mov	r3, r0
803028a0:	e3530001 	cmp	r3, #1
803028a4:	1a000000 	bne	803028ac <xQueueGenericSend+0x84>
803028a8:	ef000000 	svc	0x00000000
803028ac:	ebfff672 	bl	8030027c <vPortExitCritical>
803028b0:	e3a03001 	mov	r3, #1
803028b4:	ea000042 	b	803029c4 <xQueueGenericSend+0x19c>
803028b8:	e59d3004 	ldr	r3, [sp, #4]
803028bc:	e3530000 	cmp	r3, #0
803028c0:	1a000002 	bne	803028d0 <xQueueGenericSend+0xa8>
803028c4:	ebfff66c 	bl	8030027c <vPortExitCritical>
803028c8:	e3a03000 	mov	r3, #0
803028cc:	ea00003c 	b	803029c4 <xQueueGenericSend+0x19c>
803028d0:	e59d301c 	ldr	r3, [sp, #28]
803028d4:	e3530000 	cmp	r3, #0
803028d8:	1a000004 	bne	803028f0 <xQueueGenericSend+0xc8>
803028dc:	e28d3014 	add	r3, sp, #20
803028e0:	e1a00003 	mov	r0, r3
803028e4:	ebfffe16 	bl	80302144 <vTaskSetTimeOutState>
803028e8:	e3a03001 	mov	r3, #1
803028ec:	e58d301c 	str	r3, [sp, #28]
803028f0:	ebfff661 	bl	8030027c <vPortExitCritical>
803028f4:	ebfffc1d 	bl	80301970 <vTaskSuspendAll>
803028f8:	ebfff652 	bl	80300248 <vPortEnterCritical>
803028fc:	e59d300c 	ldr	r3, [sp, #12]
80302900:	e5933044 	ldr	r3, [r3, #68]	; 0x44
80302904:	e3730001 	cmn	r3, #1
80302908:	1a000002 	bne	80302918 <xQueueGenericSend+0xf0>
8030290c:	e59d300c 	ldr	r3, [sp, #12]
80302910:	e3a02000 	mov	r2, #0
80302914:	e5832044 	str	r2, [r3, #68]	; 0x44
80302918:	e59d300c 	ldr	r3, [sp, #12]
8030291c:	e5933048 	ldr	r3, [r3, #72]	; 0x48
80302920:	e3730001 	cmn	r3, #1
80302924:	1a000002 	bne	80302934 <xQueueGenericSend+0x10c>
80302928:	e59d300c 	ldr	r3, [sp, #12]
8030292c:	e3a02000 	mov	r2, #0
80302930:	e5832048 	str	r2, [r3, #72]	; 0x48
80302934:	ebfff650 	bl	8030027c <vPortExitCritical>
80302938:	e28d2014 	add	r2, sp, #20
8030293c:	e28d3004 	add	r3, sp, #4
80302940:	e1a00002 	mov	r0, r2
80302944:	e1a01003 	mov	r1, r3
80302948:	ebfffe0b 	bl	8030217c <xTaskCheckForTimeOut>
8030294c:	e1a03000 	mov	r3, r0
80302950:	e3530000 	cmp	r3, #0
80302954:	1a000016 	bne	803029b4 <xQueueGenericSend+0x18c>
80302958:	e59d000c 	ldr	r0, [sp, #12]
8030295c:	eb0001ee 	bl	8030311c <prvIsQueueFull>
80302960:	e1a03000 	mov	r3, r0
80302964:	e3530000 	cmp	r3, #0
80302968:	0a00000d 	beq	803029a4 <xQueueGenericSend+0x17c>
8030296c:	e59d300c 	ldr	r3, [sp, #12]
80302970:	e2832010 	add	r2, r3, #16
80302974:	e59d3004 	ldr	r3, [sp, #4]
80302978:	e1a00002 	mov	r0, r2
8030297c:	e1a01003 	mov	r1, r3
80302980:	ebfffd67 	bl	80301f24 <vTaskPlaceOnEventList>
80302984:	e59d000c 	ldr	r0, [sp, #12]
80302988:	eb000187 	bl	80302fac <prvUnlockQueue>
8030298c:	ebfffbff 	bl	80301990 <xTaskResumeAll>
80302990:	e1a03000 	mov	r3, r0
80302994:	e3530000 	cmp	r3, #0
80302998:	1affffab 	bne	8030284c <xQueueGenericSend+0x24>
8030299c:	ef000000 	svc	0x00000000
803029a0:	eaffffa9 	b	8030284c <xQueueGenericSend+0x24>
803029a4:	e59d000c 	ldr	r0, [sp, #12]
803029a8:	eb00017f 	bl	80302fac <prvUnlockQueue>
803029ac:	ebfffbf7 	bl	80301990 <xTaskResumeAll>
803029b0:	eaffffa5 	b	8030284c <xQueueGenericSend+0x24>
803029b4:	e59d000c 	ldr	r0, [sp, #12]
803029b8:	eb00017b 	bl	80302fac <prvUnlockQueue>
803029bc:	ebfffbf3 	bl	80301990 <xTaskResumeAll>
803029c0:	e3a03000 	mov	r3, #0
803029c4:	e1a00003 	mov	r0, r3
803029c8:	e28dd024 	add	sp, sp, #36	; 0x24
803029cc:	e8bd8000 	ldmfd	sp!, {pc}

803029d0 <xQueueGenericSendFromISR>:
803029d0:	e52de004 	push	{lr}		; (str lr, [sp, #-4]!)
803029d4:	e24dd01c 	sub	sp, sp, #28
803029d8:	e58d000c 	str	r0, [sp, #12]
803029dc:	e58d1008 	str	r1, [sp, #8]
803029e0:	e58d2004 	str	r2, [sp, #4]
803029e4:	e58d3000 	str	r3, [sp]
803029e8:	e3a03000 	mov	r3, #0
803029ec:	e58d3010 	str	r3, [sp, #16]
803029f0:	e59d300c 	ldr	r3, [sp, #12]
803029f4:	e5932038 	ldr	r2, [r3, #56]	; 0x38
803029f8:	e59d300c 	ldr	r3, [sp, #12]
803029fc:	e593303c 	ldr	r3, [r3, #60]	; 0x3c
80302a00:	e1520003 	cmp	r2, r3
80302a04:	2a00001e 	bcs	80302a84 <xQueueGenericSendFromISR+0xb4>
80302a08:	e59d000c 	ldr	r0, [sp, #12]
80302a0c:	e59d1008 	ldr	r1, [sp, #8]
80302a10:	e59d2000 	ldr	r2, [sp]
80302a14:	eb0000f6 	bl	80302df4 <prvCopyDataToQueue>
80302a18:	e59d300c 	ldr	r3, [sp, #12]
80302a1c:	e5933048 	ldr	r3, [r3, #72]	; 0x48
80302a20:	e3730001 	cmn	r3, #1
80302a24:	1a00000e 	bne	80302a64 <xQueueGenericSendFromISR+0x94>
80302a28:	e59d300c 	ldr	r3, [sp, #12]
80302a2c:	e5933024 	ldr	r3, [r3, #36]	; 0x24
80302a30:	e3530000 	cmp	r3, #0
80302a34:	0a00000f 	beq	80302a78 <xQueueGenericSendFromISR+0xa8>
80302a38:	e59d300c 	ldr	r3, [sp, #12]
80302a3c:	e2833024 	add	r3, r3, #36	; 0x24
80302a40:	e1a00003 	mov	r0, r3
80302a44:	ebfffd78 	bl	8030202c <xTaskRemoveFromEventList>
80302a48:	e1a03000 	mov	r3, r0
80302a4c:	e3530000 	cmp	r3, #0
80302a50:	0a000008 	beq	80302a78 <xQueueGenericSendFromISR+0xa8>
80302a54:	e59d3004 	ldr	r3, [sp, #4]
80302a58:	e3a02001 	mov	r2, #1
80302a5c:	e5832000 	str	r2, [r3]
80302a60:	ea000004 	b	80302a78 <xQueueGenericSendFromISR+0xa8>
80302a64:	e59d300c 	ldr	r3, [sp, #12]
80302a68:	e5933048 	ldr	r3, [r3, #72]	; 0x48
80302a6c:	e2832001 	add	r2, r3, #1
80302a70:	e59d300c 	ldr	r3, [sp, #12]
80302a74:	e5832048 	str	r2, [r3, #72]	; 0x48
80302a78:	e3a03001 	mov	r3, #1
80302a7c:	e58d3014 	str	r3, [sp, #20]
80302a80:	ea000001 	b	80302a8c <xQueueGenericSendFromISR+0xbc>
80302a84:	e3a03000 	mov	r3, #0
80302a88:	e58d3014 	str	r3, [sp, #20]
80302a8c:	e59d3014 	ldr	r3, [sp, #20]
80302a90:	e1a00003 	mov	r0, r3
80302a94:	e28dd01c 	add	sp, sp, #28
80302a98:	e8bd8000 	ldmfd	sp!, {pc}

80302a9c <xQueueGenericReceive>:
80302a9c:	e52de004 	push	{lr}		; (str lr, [sp, #-4]!)
80302aa0:	e24dd024 	sub	sp, sp, #36	; 0x24
80302aa4:	e58d000c 	str	r0, [sp, #12]
80302aa8:	e58d1008 	str	r1, [sp, #8]
80302aac:	e58d2004 	str	r2, [sp, #4]
80302ab0:	e58d3000 	str	r3, [sp]
80302ab4:	e3a03000 	mov	r3, #0
80302ab8:	e58d301c 	str	r3, [sp, #28]
80302abc:	ea000000 	b	80302ac4 <xQueueGenericReceive+0x28>
80302ac0:	e1a00000 	nop			; (mov r0, r0)
80302ac4:	ebfff5df 	bl	80300248 <vPortEnterCritical>
80302ac8:	e59d300c 	ldr	r3, [sp, #12]
80302acc:	e5933038 	ldr	r3, [r3, #56]	; 0x38
80302ad0:	e3530000 	cmp	r3, #0
80302ad4:	0a00002c 	beq	80302b8c <xQueueGenericReceive+0xf0>
80302ad8:	e59d300c 	ldr	r3, [sp, #12]
80302adc:	e593300c 	ldr	r3, [r3, #12]
80302ae0:	e58d3018 	str	r3, [sp, #24]
80302ae4:	e59d000c 	ldr	r0, [sp, #12]
80302ae8:	e59d1008 	ldr	r1, [sp, #8]
80302aec:	eb00010b 	bl	80302f20 <prvCopyDataFromQueue>
80302af0:	e59d3000 	ldr	r3, [sp]
80302af4:	e3530000 	cmp	r3, #0
80302af8:	1a000011 	bne	80302b44 <xQueueGenericReceive+0xa8>
80302afc:	e59d300c 	ldr	r3, [sp, #12]
80302b00:	e5933038 	ldr	r3, [r3, #56]	; 0x38
80302b04:	e2432001 	sub	r2, r3, #1
80302b08:	e59d300c 	ldr	r3, [sp, #12]
80302b0c:	e5832038 	str	r2, [r3, #56]	; 0x38
80302b10:	e59d300c 	ldr	r3, [sp, #12]
80302b14:	e5933010 	ldr	r3, [r3, #16]
80302b18:	e3530000 	cmp	r3, #0
80302b1c:	0a000017 	beq	80302b80 <xQueueGenericReceive+0xe4>
80302b20:	e59d300c 	ldr	r3, [sp, #12]
80302b24:	e2833010 	add	r3, r3, #16
80302b28:	e1a00003 	mov	r0, r3
80302b2c:	ebfffd3e 	bl	8030202c <xTaskRemoveFromEventList>
80302b30:	e1a03000 	mov	r3, r0
80302b34:	e3530001 	cmp	r3, #1
80302b38:	1a000010 	bne	80302b80 <xQueueGenericReceive+0xe4>
80302b3c:	ef000000 	svc	0x00000000
80302b40:	ea00000e 	b	80302b80 <xQueueGenericReceive+0xe4>
80302b44:	e59d300c 	ldr	r3, [sp, #12]
80302b48:	e59d2018 	ldr	r2, [sp, #24]
80302b4c:	e583200c 	str	r2, [r3, #12]
80302b50:	e59d300c 	ldr	r3, [sp, #12]
80302b54:	e5933024 	ldr	r3, [r3, #36]	; 0x24
80302b58:	e3530000 	cmp	r3, #0
80302b5c:	0a000007 	beq	80302b80 <xQueueGenericReceive+0xe4>
80302b60:	e59d300c 	ldr	r3, [sp, #12]
80302b64:	e2833024 	add	r3, r3, #36	; 0x24
80302b68:	e1a00003 	mov	r0, r3
80302b6c:	ebfffd2e 	bl	8030202c <xTaskRemoveFromEventList>
80302b70:	e1a03000 	mov	r3, r0
80302b74:	e3530000 	cmp	r3, #0
80302b78:	0a000000 	beq	80302b80 <xQueueGenericReceive+0xe4>
80302b7c:	ef000000 	svc	0x00000000
80302b80:	ebfff5bd 	bl	8030027c <vPortExitCritical>
80302b84:	e3a03001 	mov	r3, #1
80302b88:	ea000042 	b	80302c98 <xQueueGenericReceive+0x1fc>
80302b8c:	e59d3004 	ldr	r3, [sp, #4]
80302b90:	e3530000 	cmp	r3, #0
80302b94:	1a000002 	bne	80302ba4 <xQueueGenericReceive+0x108>
80302b98:	ebfff5b7 	bl	8030027c <vPortExitCritical>
80302b9c:	e3a03000 	mov	r3, #0
80302ba0:	ea00003c 	b	80302c98 <xQueueGenericReceive+0x1fc>
80302ba4:	e59d301c 	ldr	r3, [sp, #28]
80302ba8:	e3530000 	cmp	r3, #0
80302bac:	1a000004 	bne	80302bc4 <xQueueGenericReceive+0x128>
80302bb0:	e28d3010 	add	r3, sp, #16
80302bb4:	e1a00003 	mov	r0, r3
80302bb8:	ebfffd61 	bl	80302144 <vTaskSetTimeOutState>
80302bbc:	e3a03001 	mov	r3, #1
80302bc0:	e58d301c 	str	r3, [sp, #28]
80302bc4:	ebfff5ac 	bl	8030027c <vPortExitCritical>
80302bc8:	ebfffb68 	bl	80301970 <vTaskSuspendAll>
80302bcc:	ebfff59d 	bl	80300248 <vPortEnterCritical>
80302bd0:	e59d300c 	ldr	r3, [sp, #12]
80302bd4:	e5933044 	ldr	r3, [r3, #68]	; 0x44
80302bd8:	e3730001 	cmn	r3, #1
80302bdc:	1a000002 	bne	80302bec <xQueueGenericReceive+0x150>
80302be0:	e59d300c 	ldr	r3, [sp, #12]
80302be4:	e3a02000 	mov	r2, #0
80302be8:	e5832044 	str	r2, [r3, #68]	; 0x44
80302bec:	e59d300c 	ldr	r3, [sp, #12]
80302bf0:	e5933048 	ldr	r3, [r3, #72]	; 0x48
80302bf4:	e3730001 	cmn	r3, #1
80302bf8:	1a000002 	bne	80302c08 <xQueueGenericReceive+0x16c>
80302bfc:	e59d300c 	ldr	r3, [sp, #12]
80302c00:	e3a02000 	mov	r2, #0
80302c04:	e5832048 	str	r2, [r3, #72]	; 0x48
80302c08:	ebfff59b 	bl	8030027c <vPortExitCritical>
80302c0c:	e28d2010 	add	r2, sp, #16
80302c10:	e28d3004 	add	r3, sp, #4
80302c14:	e1a00002 	mov	r0, r2
80302c18:	e1a01003 	mov	r1, r3
80302c1c:	ebfffd56 	bl	8030217c <xTaskCheckForTimeOut>
80302c20:	e1a03000 	mov	r3, r0
80302c24:	e3530000 	cmp	r3, #0
80302c28:	1a000016 	bne	80302c88 <xQueueGenericReceive+0x1ec>
80302c2c:	e59d000c 	ldr	r0, [sp, #12]
80302c30:	eb00011c 	bl	803030a8 <prvIsQueueEmpty>
80302c34:	e1a03000 	mov	r3, r0
80302c38:	e3530000 	cmp	r3, #0
80302c3c:	0a00000d 	beq	80302c78 <xQueueGenericReceive+0x1dc>
80302c40:	e59d300c 	ldr	r3, [sp, #12]
80302c44:	e2832024 	add	r2, r3, #36	; 0x24
80302c48:	e59d3004 	ldr	r3, [sp, #4]
80302c4c:	e1a00002 	mov	r0, r2
80302c50:	e1a01003 	mov	r1, r3
80302c54:	ebfffcb2 	bl	80301f24 <vTaskPlaceOnEventList>
80302c58:	e59d000c 	ldr	r0, [sp, #12]
80302c5c:	eb0000d2 	bl	80302fac <prvUnlockQueue>
80302c60:	ebfffb4a 	bl	80301990 <xTaskResumeAll>
80302c64:	e1a03000 	mov	r3, r0
80302c68:	e3530000 	cmp	r3, #0
80302c6c:	1affff93 	bne	80302ac0 <xQueueGenericReceive+0x24>
80302c70:	ef000000 	svc	0x00000000
80302c74:	eaffff91 	b	80302ac0 <xQueueGenericReceive+0x24>
80302c78:	e59d000c 	ldr	r0, [sp, #12]
80302c7c:	eb0000ca 	bl	80302fac <prvUnlockQueue>
80302c80:	ebfffb42 	bl	80301990 <xTaskResumeAll>
80302c84:	eaffff8d 	b	80302ac0 <xQueueGenericReceive+0x24>
80302c88:	e59d000c 	ldr	r0, [sp, #12]
80302c8c:	eb0000c6 	bl	80302fac <prvUnlockQueue>
80302c90:	ebfffb3e 	bl	80301990 <xTaskResumeAll>
80302c94:	e3a03000 	mov	r3, #0
80302c98:	e1a00003 	mov	r0, r3
80302c9c:	e28dd024 	add	sp, sp, #36	; 0x24
80302ca0:	e8bd8000 	ldmfd	sp!, {pc}

80302ca4 <xQueueReceiveFromISR>:
80302ca4:	e52de004 	push	{lr}		; (str lr, [sp, #-4]!)
80302ca8:	e24dd01c 	sub	sp, sp, #28
80302cac:	e58d000c 	str	r0, [sp, #12]
80302cb0:	e58d1008 	str	r1, [sp, #8]
80302cb4:	e58d2004 	str	r2, [sp, #4]
80302cb8:	e3a03000 	mov	r3, #0
80302cbc:	e58d3010 	str	r3, [sp, #16]
80302cc0:	e59d300c 	ldr	r3, [sp, #12]
80302cc4:	e5933038 	ldr	r3, [r3, #56]	; 0x38
80302cc8:	e3530000 	cmp	r3, #0
80302ccc:	0a000022 	beq	80302d5c <xQueueReceiveFromISR+0xb8>
80302cd0:	e59d000c 	ldr	r0, [sp, #12]
80302cd4:	e59d1008 	ldr	r1, [sp, #8]
80302cd8:	eb000090 	bl	80302f20 <prvCopyDataFromQueue>
80302cdc:	e59d300c 	ldr	r3, [sp, #12]
80302ce0:	e5933038 	ldr	r3, [r3, #56]	; 0x38
80302ce4:	e2432001 	sub	r2, r3, #1
80302ce8:	e59d300c 	ldr	r3, [sp, #12]
80302cec:	e5832038 	str	r2, [r3, #56]	; 0x38
80302cf0:	e59d300c 	ldr	r3, [sp, #12]
80302cf4:	e5933044 	ldr	r3, [r3, #68]	; 0x44
80302cf8:	e3730001 	cmn	r3, #1
80302cfc:	1a00000e 	bne	80302d3c <xQueueReceiveFromISR+0x98>
80302d00:	e59d300c 	ldr	r3, [sp, #12]
80302d04:	e5933010 	ldr	r3, [r3, #16]
80302d08:	e3530000 	cmp	r3, #0
80302d0c:	0a00000f 	beq	80302d50 <xQueueReceiveFromISR+0xac>
80302d10:	e59d300c 	ldr	r3, [sp, #12]
80302d14:	e2833010 	add	r3, r3, #16
80302d18:	e1a00003 	mov	r0, r3
80302d1c:	ebfffcc2 	bl	8030202c <xTaskRemoveFromEventList>
80302d20:	e1a03000 	mov	r3, r0
80302d24:	e3530000 	cmp	r3, #0
80302d28:	0a000008 	beq	80302d50 <xQueueReceiveFromISR+0xac>
80302d2c:	e59d3004 	ldr	r3, [sp, #4]
80302d30:	e3a02001 	mov	r2, #1
80302d34:	e5832000 	str	r2, [r3]
80302d38:	ea000004 	b	80302d50 <xQueueReceiveFromISR+0xac>
80302d3c:	e59d300c 	ldr	r3, [sp, #12]
80302d40:	e5933044 	ldr	r3, [r3, #68]	; 0x44
80302d44:	e2832001 	add	r2, r3, #1
80302d48:	e59d300c 	ldr	r3, [sp, #12]
80302d4c:	e5832044 	str	r2, [r3, #68]	; 0x44
80302d50:	e3a03001 	mov	r3, #1
80302d54:	e58d3014 	str	r3, [sp, #20]
80302d58:	ea000001 	b	80302d64 <xQueueReceiveFromISR+0xc0>
80302d5c:	e3a03000 	mov	r3, #0
80302d60:	e58d3014 	str	r3, [sp, #20]
80302d64:	e59d3014 	ldr	r3, [sp, #20]
80302d68:	e1a00003 	mov	r0, r3
80302d6c:	e28dd01c 	add	sp, sp, #28
80302d70:	e8bd8000 	ldmfd	sp!, {pc}

80302d74 <uxQueueMessagesWaiting>:
80302d74:	e52de004 	push	{lr}		; (str lr, [sp, #-4]!)
80302d78:	e24dd014 	sub	sp, sp, #20
80302d7c:	e58d0004 	str	r0, [sp, #4]
80302d80:	ebfff530 	bl	80300248 <vPortEnterCritical>
80302d84:	e59d3004 	ldr	r3, [sp, #4]
80302d88:	e5933038 	ldr	r3, [r3, #56]	; 0x38
80302d8c:	e58d300c 	str	r3, [sp, #12]
80302d90:	ebfff539 	bl	8030027c <vPortExitCritical>
80302d94:	e59d300c 	ldr	r3, [sp, #12]
80302d98:	e1a00003 	mov	r0, r3
80302d9c:	e28dd014 	add	sp, sp, #20
80302da0:	e8bd8000 	ldmfd	sp!, {pc}

80302da4 <uxQueueMessagesWaitingFromISR>:
80302da4:	e24dd010 	sub	sp, sp, #16
80302da8:	e58d0004 	str	r0, [sp, #4]
80302dac:	e59d3004 	ldr	r3, [sp, #4]
80302db0:	e5933038 	ldr	r3, [r3, #56]	; 0x38
80302db4:	e58d300c 	str	r3, [sp, #12]
80302db8:	e59d300c 	ldr	r3, [sp, #12]
80302dbc:	e1a00003 	mov	r0, r3
80302dc0:	e28dd010 	add	sp, sp, #16
80302dc4:	e12fff1e 	bx	lr

80302dc8 <vQueueDelete>:
80302dc8:	e52de004 	push	{lr}		; (str lr, [sp, #-4]!)
80302dcc:	e24dd00c 	sub	sp, sp, #12
80302dd0:	e58d0004 	str	r0, [sp, #4]
80302dd4:	e59d3004 	ldr	r3, [sp, #4]
80302dd8:	e5933000 	ldr	r3, [r3]
80302ddc:	e1a00003 	mov	r0, r3
80302de0:	eb000246 	bl	80303700 <vPortFree>
80302de4:	e59d0004 	ldr	r0, [sp, #4]
80302de8:	eb000244 	bl	80303700 <vPortFree>
80302dec:	e28dd00c 	add	sp, sp, #12
80302df0:	e8bd8000 	ldmfd	sp!, {pc}

80302df4 <prvCopyDataToQueue>:
80302df4:	e52de004 	push	{lr}		; (str lr, [sp, #-4]!)
80302df8:	e24dd014 	sub	sp, sp, #20
80302dfc:	e58d000c 	str	r0, [sp, #12]
80302e00:	e58d1008 	str	r1, [sp, #8]
80302e04:	e58d2004 	str	r2, [sp, #4]
80302e08:	e59d300c 	ldr	r3, [sp, #12]
80302e0c:	e5933040 	ldr	r3, [r3, #64]	; 0x40
80302e10:	e3530000 	cmp	r3, #0
80302e14:	0a00003a 	beq	80302f04 <prvCopyDataToQueue+0x110>
80302e18:	e59d3004 	ldr	r3, [sp, #4]
80302e1c:	e3530000 	cmp	r3, #0
80302e20:	1a000019 	bne	80302e8c <prvCopyDataToQueue+0x98>
80302e24:	e59d300c 	ldr	r3, [sp, #12]
80302e28:	e5932008 	ldr	r2, [r3, #8]
80302e2c:	e59d300c 	ldr	r3, [sp, #12]
80302e30:	e5933040 	ldr	r3, [r3, #64]	; 0x40
80302e34:	e1a00002 	mov	r0, r2
80302e38:	e59d1008 	ldr	r1, [sp, #8]
80302e3c:	e1a02003 	mov	r2, r3
80302e40:	eb00096e 	bl	80305400 <memcpy>
80302e44:	e59d300c 	ldr	r3, [sp, #12]
80302e48:	e5932008 	ldr	r2, [r3, #8]
80302e4c:	e59d300c 	ldr	r3, [sp, #12]
80302e50:	e5933040 	ldr	r3, [r3, #64]	; 0x40
80302e54:	e0822003 	add	r2, r2, r3
80302e58:	e59d300c 	ldr	r3, [sp, #12]
80302e5c:	e5832008 	str	r2, [r3, #8]
80302e60:	e59d300c 	ldr	r3, [sp, #12]
80302e64:	e5932008 	ldr	r2, [r3, #8]
80302e68:	e59d300c 	ldr	r3, [sp, #12]
80302e6c:	e5933004 	ldr	r3, [r3, #4]
80302e70:	e1520003 	cmp	r2, r3
80302e74:	3a000022 	bcc	80302f04 <prvCopyDataToQueue+0x110>
80302e78:	e59d300c 	ldr	r3, [sp, #12]
80302e7c:	e5932000 	ldr	r2, [r3]
80302e80:	e59d300c 	ldr	r3, [sp, #12]
80302e84:	e5832008 	str	r2, [r3, #8]
80302e88:	ea00001d 	b	80302f04 <prvCopyDataToQueue+0x110>
80302e8c:	e59d300c 	ldr	r3, [sp, #12]
80302e90:	e593200c 	ldr	r2, [r3, #12]
80302e94:	e59d300c 	ldr	r3, [sp, #12]
80302e98:	e5933040 	ldr	r3, [r3, #64]	; 0x40
80302e9c:	e1a00002 	mov	r0, r2
80302ea0:	e59d1008 	ldr	r1, [sp, #8]
80302ea4:	e1a02003 	mov	r2, r3
80302ea8:	eb000954 	bl	80305400 <memcpy>
80302eac:	e59d300c 	ldr	r3, [sp, #12]
80302eb0:	e593200c 	ldr	r2, [r3, #12]
80302eb4:	e59d300c 	ldr	r3, [sp, #12]
80302eb8:	e5933040 	ldr	r3, [r3, #64]	; 0x40
80302ebc:	e2633000 	rsb	r3, r3, #0
80302ec0:	e0822003 	add	r2, r2, r3
80302ec4:	e59d300c 	ldr	r3, [sp, #12]
80302ec8:	e583200c 	str	r2, [r3, #12]
80302ecc:	e59d300c 	ldr	r3, [sp, #12]
80302ed0:	e593200c 	ldr	r2, [r3, #12]
80302ed4:	e59d300c 	ldr	r3, [sp, #12]
80302ed8:	e5933000 	ldr	r3, [r3]
80302edc:	e1520003 	cmp	r2, r3
80302ee0:	2a000007 	bcs	80302f04 <prvCopyDataToQueue+0x110>
80302ee4:	e59d300c 	ldr	r3, [sp, #12]
80302ee8:	e5932004 	ldr	r2, [r3, #4]
80302eec:	e59d300c 	ldr	r3, [sp, #12]
80302ef0:	e5933040 	ldr	r3, [r3, #64]	; 0x40
80302ef4:	e2633000 	rsb	r3, r3, #0
80302ef8:	e0822003 	add	r2, r2, r3
80302efc:	e59d300c 	ldr	r3, [sp, #12]
80302f00:	e583200c 	str	r2, [r3, #12]
80302f04:	e59d300c 	ldr	r3, [sp, #12]
80302f08:	e5933038 	ldr	r3, [r3, #56]	; 0x38
80302f0c:	e2832001 	add	r2, r3, #1
80302f10:	e59d300c 	ldr	r3, [sp, #12]
80302f14:	e5832038 	str	r2, [r3, #56]	; 0x38
80302f18:	e28dd014 	add	sp, sp, #20
80302f1c:	e8bd8000 	ldmfd	sp!, {pc}

80302f20 <prvCopyDataFromQueue>:
80302f20:	e52de004 	push	{lr}		; (str lr, [sp, #-4]!)
80302f24:	e24dd00c 	sub	sp, sp, #12
80302f28:	e58d0004 	str	r0, [sp, #4]
80302f2c:	e58d1000 	str	r1, [sp]
80302f30:	e59d3004 	ldr	r3, [sp, #4]
80302f34:	e5933000 	ldr	r3, [r3]
80302f38:	e3530000 	cmp	r3, #0
80302f3c:	0a000018 	beq	80302fa4 <prvCopyDataFromQueue+0x84>
80302f40:	e59d3004 	ldr	r3, [sp, #4]
80302f44:	e593200c 	ldr	r2, [r3, #12]
80302f48:	e59d3004 	ldr	r3, [sp, #4]
80302f4c:	e5933040 	ldr	r3, [r3, #64]	; 0x40
80302f50:	e0822003 	add	r2, r2, r3
80302f54:	e59d3004 	ldr	r3, [sp, #4]
80302f58:	e583200c 	str	r2, [r3, #12]
80302f5c:	e59d3004 	ldr	r3, [sp, #4]
80302f60:	e593200c 	ldr	r2, [r3, #12]
80302f64:	e59d3004 	ldr	r3, [sp, #4]
80302f68:	e5933004 	ldr	r3, [r3, #4]
80302f6c:	e1520003 	cmp	r2, r3
80302f70:	3a000003 	bcc	80302f84 <prvCopyDataFromQueue+0x64>
80302f74:	e59d3004 	ldr	r3, [sp, #4]
80302f78:	e5932000 	ldr	r2, [r3]
80302f7c:	e59d3004 	ldr	r3, [sp, #4]
80302f80:	e583200c 	str	r2, [r3, #12]
80302f84:	e59d3004 	ldr	r3, [sp, #4]
80302f88:	e593200c 	ldr	r2, [r3, #12]
80302f8c:	e59d3004 	ldr	r3, [sp, #4]
80302f90:	e5933040 	ldr	r3, [r3, #64]	; 0x40
80302f94:	e59d0000 	ldr	r0, [sp]
80302f98:	e1a01002 	mov	r1, r2
80302f9c:	e1a02003 	mov	r2, r3
80302fa0:	eb000916 	bl	80305400 <memcpy>
80302fa4:	e28dd00c 	add	sp, sp, #12
80302fa8:	e8bd8000 	ldmfd	sp!, {pc}

80302fac <prvUnlockQueue>:
80302fac:	e52de004 	push	{lr}		; (str lr, [sp, #-4]!)
80302fb0:	e24dd00c 	sub	sp, sp, #12
80302fb4:	e58d0004 	str	r0, [sp, #4]
80302fb8:	ebfff4a2 	bl	80300248 <vPortEnterCritical>
80302fbc:	ea000010 	b	80303004 <prvUnlockQueue+0x58>
80302fc0:	e59d3004 	ldr	r3, [sp, #4]
80302fc4:	e5933024 	ldr	r3, [r3, #36]	; 0x24
80302fc8:	e3530000 	cmp	r3, #0
80302fcc:	0a000011 	beq	80303018 <prvUnlockQueue+0x6c>
80302fd0:	e59d3004 	ldr	r3, [sp, #4]
80302fd4:	e2833024 	add	r3, r3, #36	; 0x24
80302fd8:	e1a00003 	mov	r0, r3
80302fdc:	ebfffc12 	bl	8030202c <xTaskRemoveFromEventList>
80302fe0:	e1a03000 	mov	r3, r0
80302fe4:	e3530000 	cmp	r3, #0
80302fe8:	0a000000 	beq	80302ff0 <prvUnlockQueue+0x44>
80302fec:	ebfffca0 	bl	80302274 <vTaskMissedYield>
80302ff0:	e59d3004 	ldr	r3, [sp, #4]
80302ff4:	e5933048 	ldr	r3, [r3, #72]	; 0x48
80302ff8:	e2432001 	sub	r2, r3, #1
80302ffc:	e59d3004 	ldr	r3, [sp, #4]
80303000:	e5832048 	str	r2, [r3, #72]	; 0x48
80303004:	e59d3004 	ldr	r3, [sp, #4]
80303008:	e5933048 	ldr	r3, [r3, #72]	; 0x48
8030300c:	e3530000 	cmp	r3, #0
80303010:	caffffea 	bgt	80302fc0 <prvUnlockQueue+0x14>
80303014:	ea000000 	b	8030301c <prvUnlockQueue+0x70>
80303018:	e1a00000 	nop			; (mov r0, r0)
8030301c:	e59d3004 	ldr	r3, [sp, #4]
80303020:	e3e02000 	mvn	r2, #0
80303024:	e5832048 	str	r2, [r3, #72]	; 0x48
80303028:	ebfff493 	bl	8030027c <vPortExitCritical>
8030302c:	ebfff485 	bl	80300248 <vPortEnterCritical>
80303030:	ea000010 	b	80303078 <prvUnlockQueue+0xcc>
80303034:	e59d3004 	ldr	r3, [sp, #4]
80303038:	e5933010 	ldr	r3, [r3, #16]
8030303c:	e3530000 	cmp	r3, #0
80303040:	0a000011 	beq	8030308c <prvUnlockQueue+0xe0>
80303044:	e59d3004 	ldr	r3, [sp, #4]
80303048:	e2833010 	add	r3, r3, #16
8030304c:	e1a00003 	mov	r0, r3
80303050:	ebfffbf5 	bl	8030202c <xTaskRemoveFromEventList>
80303054:	e1a03000 	mov	r3, r0
80303058:	e3530000 	cmp	r3, #0
8030305c:	0a000000 	beq	80303064 <prvUnlockQueue+0xb8>
80303060:	ebfffc83 	bl	80302274 <vTaskMissedYield>
80303064:	e59d3004 	ldr	r3, [sp, #4]
80303068:	e5933044 	ldr	r3, [r3, #68]	; 0x44
8030306c:	e2432001 	sub	r2, r3, #1
80303070:	e59d3004 	ldr	r3, [sp, #4]
80303074:	e5832044 	str	r2, [r3, #68]	; 0x44
80303078:	e59d3004 	ldr	r3, [sp, #4]
8030307c:	e5933044 	ldr	r3, [r3, #68]	; 0x44
80303080:	e3530000 	cmp	r3, #0
80303084:	caffffea 	bgt	80303034 <prvUnlockQueue+0x88>
80303088:	ea000000 	b	80303090 <prvUnlockQueue+0xe4>
8030308c:	e1a00000 	nop			; (mov r0, r0)
80303090:	e59d3004 	ldr	r3, [sp, #4]
80303094:	e3e02000 	mvn	r2, #0
80303098:	e5832044 	str	r2, [r3, #68]	; 0x44
8030309c:	ebfff476 	bl	8030027c <vPortExitCritical>
803030a0:	e28dd00c 	add	sp, sp, #12
803030a4:	e8bd8000 	ldmfd	sp!, {pc}

803030a8 <prvIsQueueEmpty>:
803030a8:	e52de004 	push	{lr}		; (str lr, [sp, #-4]!)
803030ac:	e24dd014 	sub	sp, sp, #20
803030b0:	e58d0004 	str	r0, [sp, #4]
803030b4:	ebfff463 	bl	80300248 <vPortEnterCritical>
803030b8:	e59d3004 	ldr	r3, [sp, #4]
803030bc:	e5933038 	ldr	r3, [r3, #56]	; 0x38
803030c0:	e3530000 	cmp	r3, #0
803030c4:	13a03000 	movne	r3, #0
803030c8:	03a03001 	moveq	r3, #1
803030cc:	e6ef3073 	uxtb	r3, r3
803030d0:	e58d300c 	str	r3, [sp, #12]
803030d4:	ebfff468 	bl	8030027c <vPortExitCritical>
803030d8:	e59d300c 	ldr	r3, [sp, #12]
803030dc:	e1a00003 	mov	r0, r3
803030e0:	e28dd014 	add	sp, sp, #20
803030e4:	e8bd8000 	ldmfd	sp!, {pc}

803030e8 <xQueueIsQueueEmptyFromISR>:
803030e8:	e24dd010 	sub	sp, sp, #16
803030ec:	e58d0004 	str	r0, [sp, #4]
803030f0:	e59d3004 	ldr	r3, [sp, #4]
803030f4:	e5933038 	ldr	r3, [r3, #56]	; 0x38
803030f8:	e3530000 	cmp	r3, #0
803030fc:	13a03000 	movne	r3, #0
80303100:	03a03001 	moveq	r3, #1
80303104:	e6ef3073 	uxtb	r3, r3
80303108:	e58d300c 	str	r3, [sp, #12]
8030310c:	e59d300c 	ldr	r3, [sp, #12]
80303110:	e1a00003 	mov	r0, r3
80303114:	e28dd010 	add	sp, sp, #16
80303118:	e12fff1e 	bx	lr

8030311c <prvIsQueueFull>:
8030311c:	e52de004 	push	{lr}		; (str lr, [sp, #-4]!)
80303120:	e24dd014 	sub	sp, sp, #20
80303124:	e58d0004 	str	r0, [sp, #4]
80303128:	ebfff446 	bl	80300248 <vPortEnterCritical>
8030312c:	e59d3004 	ldr	r3, [sp, #4]
80303130:	e5932038 	ldr	r2, [r3, #56]	; 0x38
80303134:	e59d3004 	ldr	r3, [sp, #4]
80303138:	e593303c 	ldr	r3, [r3, #60]	; 0x3c
8030313c:	e1520003 	cmp	r2, r3
80303140:	13a03000 	movne	r3, #0
80303144:	03a03001 	moveq	r3, #1
80303148:	e6ef3073 	uxtb	r3, r3
8030314c:	e58d300c 	str	r3, [sp, #12]
80303150:	ebfff449 	bl	8030027c <vPortExitCritical>
80303154:	e59d300c 	ldr	r3, [sp, #12]
80303158:	e1a00003 	mov	r0, r3
8030315c:	e28dd014 	add	sp, sp, #20
80303160:	e8bd8000 	ldmfd	sp!, {pc}

80303164 <xQueueIsQueueFullFromISR>:
80303164:	e24dd010 	sub	sp, sp, #16
80303168:	e58d0004 	str	r0, [sp, #4]
8030316c:	e59d3004 	ldr	r3, [sp, #4]
80303170:	e5932038 	ldr	r2, [r3, #56]	; 0x38
80303174:	e59d3004 	ldr	r3, [sp, #4]
80303178:	e593303c 	ldr	r3, [r3, #60]	; 0x3c
8030317c:	e1520003 	cmp	r2, r3
80303180:	13a03000 	movne	r3, #0
80303184:	03a03001 	moveq	r3, #1
80303188:	e6ef3073 	uxtb	r3, r3
8030318c:	e58d300c 	str	r3, [sp, #12]
80303190:	e59d300c 	ldr	r3, [sp, #12]
80303194:	e1a00003 	mov	r0, r3
80303198:	e28dd010 	add	sp, sp, #16
8030319c:	e12fff1e 	bx	lr

803031a0 <vQueueWaitForMessageRestricted>:
803031a0:	e52de004 	push	{lr}		; (str lr, [sp, #-4]!)
803031a4:	e24dd00c 	sub	sp, sp, #12
803031a8:	e58d0004 	str	r0, [sp, #4]
803031ac:	e58d1000 	str	r1, [sp]
803031b0:	ebfff424 	bl	80300248 <vPortEnterCritical>
803031b4:	e59d3004 	ldr	r3, [sp, #4]
803031b8:	e5933044 	ldr	r3, [r3, #68]	; 0x44
803031bc:	e3730001 	cmn	r3, #1
803031c0:	1a000002 	bne	803031d0 <vQueueWaitForMessageRestricted+0x30>
803031c4:	e59d3004 	ldr	r3, [sp, #4]
803031c8:	e3a02000 	mov	r2, #0
803031cc:	e5832044 	str	r2, [r3, #68]	; 0x44
803031d0:	e59d3004 	ldr	r3, [sp, #4]
803031d4:	e5933048 	ldr	r3, [r3, #72]	; 0x48
803031d8:	e3730001 	cmn	r3, #1
803031dc:	1a000002 	bne	803031ec <vQueueWaitForMessageRestricted+0x4c>
803031e0:	e59d3004 	ldr	r3, [sp, #4]
803031e4:	e3a02000 	mov	r2, #0
803031e8:	e5832048 	str	r2, [r3, #72]	; 0x48
803031ec:	ebfff422 	bl	8030027c <vPortExitCritical>
803031f0:	e59d3004 	ldr	r3, [sp, #4]
803031f4:	e5933038 	ldr	r3, [r3, #56]	; 0x38
803031f8:	e3530000 	cmp	r3, #0
803031fc:	1a000004 	bne	80303214 <vQueueWaitForMessageRestricted+0x74>
80303200:	e59d3004 	ldr	r3, [sp, #4]
80303204:	e2833024 	add	r3, r3, #36	; 0x24
80303208:	e1a00003 	mov	r0, r3
8030320c:	e59d1000 	ldr	r1, [sp]
80303210:	ebfffb6a 	bl	80301fc0 <vTaskPlaceOnEventListRestricted>
80303214:	e59d0004 	ldr	r0, [sp, #4]
80303218:	ebffff63 	bl	80302fac <prvUnlockQueue>
8030321c:	e28dd00c 	add	sp, sp, #12
80303220:	e8bd8000 	ldmfd	sp!, {pc}

80303224 <vListInitialise>:
80303224:	e24dd008 	sub	sp, sp, #8
80303228:	e58d0004 	str	r0, [sp, #4]
8030322c:	e59d3004 	ldr	r3, [sp, #4]
80303230:	e2832008 	add	r2, r3, #8
80303234:	e59d3004 	ldr	r3, [sp, #4]
80303238:	e5832004 	str	r2, [r3, #4]
8030323c:	e59d3004 	ldr	r3, [sp, #4]
80303240:	e3e02000 	mvn	r2, #0
80303244:	e5832008 	str	r2, [r3, #8]
80303248:	e59d3004 	ldr	r3, [sp, #4]
8030324c:	e2832008 	add	r2, r3, #8
80303250:	e59d3004 	ldr	r3, [sp, #4]
80303254:	e583200c 	str	r2, [r3, #12]
80303258:	e59d3004 	ldr	r3, [sp, #4]
8030325c:	e2832008 	add	r2, r3, #8
80303260:	e59d3004 	ldr	r3, [sp, #4]
80303264:	e5832010 	str	r2, [r3, #16]
80303268:	e59d3004 	ldr	r3, [sp, #4]
8030326c:	e3a02000 	mov	r2, #0
80303270:	e5832000 	str	r2, [r3]
80303274:	e28dd008 	add	sp, sp, #8
80303278:	e12fff1e 	bx	lr

8030327c <vListInitialiseItem>:
8030327c:	e24dd008 	sub	sp, sp, #8
80303280:	e58d0004 	str	r0, [sp, #4]
80303284:	e59d3004 	ldr	r3, [sp, #4]
80303288:	e3a02000 	mov	r2, #0
8030328c:	e5832010 	str	r2, [r3, #16]
80303290:	e28dd008 	add	sp, sp, #8
80303294:	e12fff1e 	bx	lr

80303298 <vListInsertEnd>:
80303298:	e24dd010 	sub	sp, sp, #16
8030329c:	e58d0004 	str	r0, [sp, #4]
803032a0:	e58d1000 	str	r1, [sp]
803032a4:	e59d3004 	ldr	r3, [sp, #4]
803032a8:	e5933004 	ldr	r3, [r3, #4]
803032ac:	e58d300c 	str	r3, [sp, #12]
803032b0:	e59d300c 	ldr	r3, [sp, #12]
803032b4:	e5932004 	ldr	r2, [r3, #4]
803032b8:	e59d3000 	ldr	r3, [sp]
803032bc:	e5832004 	str	r2, [r3, #4]
803032c0:	e59d3004 	ldr	r3, [sp, #4]
803032c4:	e5932004 	ldr	r2, [r3, #4]
803032c8:	e59d3000 	ldr	r3, [sp]
803032cc:	e5832008 	str	r2, [r3, #8]
803032d0:	e59d300c 	ldr	r3, [sp, #12]
803032d4:	e5933004 	ldr	r3, [r3, #4]
803032d8:	e59d2000 	ldr	r2, [sp]
803032dc:	e5832008 	str	r2, [r3, #8]
803032e0:	e59d300c 	ldr	r3, [sp, #12]
803032e4:	e59d2000 	ldr	r2, [sp]
803032e8:	e5832004 	str	r2, [r3, #4]
803032ec:	e59d3004 	ldr	r3, [sp, #4]
803032f0:	e59d2000 	ldr	r2, [sp]
803032f4:	e5832004 	str	r2, [r3, #4]
803032f8:	e59d3000 	ldr	r3, [sp]
803032fc:	e59d2004 	ldr	r2, [sp, #4]
80303300:	e5832010 	str	r2, [r3, #16]
80303304:	e59d3004 	ldr	r3, [sp, #4]
80303308:	e5933000 	ldr	r3, [r3]
8030330c:	e2832001 	add	r2, r3, #1
80303310:	e59d3004 	ldr	r3, [sp, #4]
80303314:	e5832000 	str	r2, [r3]
80303318:	e28dd010 	add	sp, sp, #16
8030331c:	e12fff1e 	bx	lr

80303320 <vListInsert>:
80303320:	e24dd010 	sub	sp, sp, #16
80303324:	e58d0004 	str	r0, [sp, #4]
80303328:	e58d1000 	str	r1, [sp]
8030332c:	e59d3000 	ldr	r3, [sp]
80303330:	e5933000 	ldr	r3, [r3]
80303334:	e58d3008 	str	r3, [sp, #8]
80303338:	e59d3008 	ldr	r3, [sp, #8]
8030333c:	e3730001 	cmn	r3, #1
80303340:	1a000003 	bne	80303354 <vListInsert+0x34>
80303344:	e59d3004 	ldr	r3, [sp, #4]
80303348:	e5933010 	ldr	r3, [r3, #16]
8030334c:	e58d300c 	str	r3, [sp, #12]
80303350:	ea00000c 	b	80303388 <vListInsert+0x68>
80303354:	e59d3004 	ldr	r3, [sp, #4]
80303358:	e2833008 	add	r3, r3, #8
8030335c:	e58d300c 	str	r3, [sp, #12]
80303360:	ea000002 	b	80303370 <vListInsert+0x50>
80303364:	e59d300c 	ldr	r3, [sp, #12]
80303368:	e5933004 	ldr	r3, [r3, #4]
8030336c:	e58d300c 	str	r3, [sp, #12]
80303370:	e59d300c 	ldr	r3, [sp, #12]
80303374:	e5933004 	ldr	r3, [r3, #4]
80303378:	e5932000 	ldr	r2, [r3]
8030337c:	e59d3008 	ldr	r3, [sp, #8]
80303380:	e1520003 	cmp	r2, r3
80303384:	9afffff6 	bls	80303364 <vListInsert+0x44>
80303388:	e59d300c 	ldr	r3, [sp, #12]
8030338c:	e5932004 	ldr	r2, [r3, #4]
80303390:	e59d3000 	ldr	r3, [sp]
80303394:	e5832004 	str	r2, [r3, #4]
80303398:	e59d3000 	ldr	r3, [sp]
8030339c:	e5933004 	ldr	r3, [r3, #4]
803033a0:	e59d2000 	ldr	r2, [sp]
803033a4:	e5832008 	str	r2, [r3, #8]
803033a8:	e59d3000 	ldr	r3, [sp]
803033ac:	e59d200c 	ldr	r2, [sp, #12]
803033b0:	e5832008 	str	r2, [r3, #8]
803033b4:	e59d300c 	ldr	r3, [sp, #12]
803033b8:	e59d2000 	ldr	r2, [sp]
803033bc:	e5832004 	str	r2, [r3, #4]
803033c0:	e59d3000 	ldr	r3, [sp]
803033c4:	e59d2004 	ldr	r2, [sp, #4]
803033c8:	e5832010 	str	r2, [r3, #16]
803033cc:	e59d3004 	ldr	r3, [sp, #4]
803033d0:	e5933000 	ldr	r3, [r3]
803033d4:	e2832001 	add	r2, r3, #1
803033d8:	e59d3004 	ldr	r3, [sp, #4]
803033dc:	e5832000 	str	r2, [r3]
803033e0:	e28dd010 	add	sp, sp, #16
803033e4:	e12fff1e 	bx	lr

803033e8 <vListRemove>:
803033e8:	e24dd010 	sub	sp, sp, #16
803033ec:	e58d0004 	str	r0, [sp, #4]
803033f0:	e59d3004 	ldr	r3, [sp, #4]
803033f4:	e5933004 	ldr	r3, [r3, #4]
803033f8:	e59d2004 	ldr	r2, [sp, #4]
803033fc:	e5922008 	ldr	r2, [r2, #8]
80303400:	e5832008 	str	r2, [r3, #8]
80303404:	e59d3004 	ldr	r3, [sp, #4]
80303408:	e5933008 	ldr	r3, [r3, #8]
8030340c:	e59d2004 	ldr	r2, [sp, #4]
80303410:	e5922004 	ldr	r2, [r2, #4]
80303414:	e5832004 	str	r2, [r3, #4]
80303418:	e59d3004 	ldr	r3, [sp, #4]
8030341c:	e5933010 	ldr	r3, [r3, #16]
80303420:	e58d300c 	str	r3, [sp, #12]
80303424:	e59d300c 	ldr	r3, [sp, #12]
80303428:	e5932004 	ldr	r2, [r3, #4]
8030342c:	e59d3004 	ldr	r3, [sp, #4]
80303430:	e1520003 	cmp	r2, r3
80303434:	1a000003 	bne	80303448 <vListRemove+0x60>
80303438:	e59d3004 	ldr	r3, [sp, #4]
8030343c:	e5932008 	ldr	r2, [r3, #8]
80303440:	e59d300c 	ldr	r3, [sp, #12]
80303444:	e5832004 	str	r2, [r3, #4]
80303448:	e59d3004 	ldr	r3, [sp, #4]
8030344c:	e3a02000 	mov	r2, #0
80303450:	e5832010 	str	r2, [r3, #16]
80303454:	e59d300c 	ldr	r3, [sp, #12]
80303458:	e5933000 	ldr	r3, [r3]
8030345c:	e2432001 	sub	r2, r3, #1
80303460:	e59d300c 	ldr	r3, [sp, #12]
80303464:	e5832000 	str	r2, [r3]
80303468:	e28dd010 	add	sp, sp, #16
8030346c:	e12fff1e 	bx	lr

80303470 <pvPortMalloc>:
80303470:	e52de004 	push	{lr}		; (str lr, [sp, #-4]!)
80303474:	e24dd02c 	sub	sp, sp, #44	; 0x2c
80303478:	e58d0004 	str	r0, [sp, #4]
8030347c:	e3a03000 	mov	r3, #0
80303480:	e58d301c 	str	r3, [sp, #28]
80303484:	ebfff939 	bl	80301970 <vTaskSuspendAll>
80303488:	e30b3bd8 	movw	r3, #48088	; 0xbbd8
8030348c:	e3483030 	movt	r3, #32816	; 0x8030
80303490:	e5933000 	ldr	r3, [r3]
80303494:	e3530000 	cmp	r3, #0
80303498:	1a00001e 	bne	80303518 <pvPortMalloc+0xa8>
8030349c:	e30b3bc8 	movw	r3, #48072	; 0xbbc8
803034a0:	e3483030 	movt	r3, #32816	; 0x8030
803034a4:	e3052bc8 	movw	r2, #23496	; 0x5bc8
803034a8:	e3482030 	movt	r2, #32816	; 0x8030
803034ac:	e5832000 	str	r2, [r3]
803034b0:	e30b3bc8 	movw	r3, #48072	; 0xbbc8
803034b4:	e3483030 	movt	r3, #32816	; 0x8030
803034b8:	e3a02000 	mov	r2, #0
803034bc:	e5832004 	str	r2, [r3, #4]
803034c0:	e30b3bd0 	movw	r3, #48080	; 0xbbd0
803034c4:	e3483030 	movt	r3, #32816	; 0x8030
803034c8:	e3a02a06 	mov	r2, #24576	; 0x6000
803034cc:	e5832004 	str	r2, [r3, #4]
803034d0:	e30b3bd0 	movw	r3, #48080	; 0xbbd0
803034d4:	e3483030 	movt	r3, #32816	; 0x8030
803034d8:	e3a02000 	mov	r2, #0
803034dc:	e5832000 	str	r2, [r3]
803034e0:	e3053bc8 	movw	r3, #23496	; 0x5bc8
803034e4:	e3483030 	movt	r3, #32816	; 0x8030
803034e8:	e58d3014 	str	r3, [sp, #20]
803034ec:	e59d3014 	ldr	r3, [sp, #20]
803034f0:	e3a02a06 	mov	r2, #24576	; 0x6000
803034f4:	e5832004 	str	r2, [r3, #4]
803034f8:	e59d2014 	ldr	r2, [sp, #20]
803034fc:	e30b3bd0 	movw	r3, #48080	; 0xbbd0
80303500:	e3483030 	movt	r3, #32816	; 0x8030
80303504:	e5823000 	str	r3, [r2]
80303508:	e30b3bd8 	movw	r3, #48088	; 0xbbd8
8030350c:	e3483030 	movt	r3, #32816	; 0x8030
80303510:	e3a02001 	mov	r2, #1
80303514:	e5832000 	str	r2, [r3]
80303518:	e59d3004 	ldr	r3, [sp, #4]
8030351c:	e3530000 	cmp	r3, #0
80303520:	0a00000d 	beq	8030355c <pvPortMalloc+0xec>
80303524:	e3053904 	movw	r3, #22788	; 0x5904
80303528:	e3483030 	movt	r3, #32816	; 0x8030
8030352c:	e1d330b0 	ldrh	r3, [r3]
80303530:	e59d2004 	ldr	r2, [sp, #4]
80303534:	e0823003 	add	r3, r2, r3
80303538:	e58d3004 	str	r3, [sp, #4]
8030353c:	e59d3004 	ldr	r3, [sp, #4]
80303540:	e2033007 	and	r3, r3, #7
80303544:	e3530000 	cmp	r3, #0
80303548:	0a000003 	beq	8030355c <pvPortMalloc+0xec>
8030354c:	e59d3004 	ldr	r3, [sp, #4]
80303550:	e3c33007 	bic	r3, r3, #7
80303554:	e2833008 	add	r3, r3, #8
80303558:	e58d3004 	str	r3, [sp, #4]
8030355c:	e59d3004 	ldr	r3, [sp, #4]
80303560:	e3530000 	cmp	r3, #0
80303564:	0a000060 	beq	803036ec <pvPortMalloc+0x27c>
80303568:	e59d2004 	ldr	r2, [sp, #4]
8030356c:	e3053fff 	movw	r3, #24575	; 0x5fff
80303570:	e1520003 	cmp	r2, r3
80303574:	8a00005c 	bhi	803036ec <pvPortMalloc+0x27c>
80303578:	e30b3bc8 	movw	r3, #48072	; 0xbbc8
8030357c:	e3483030 	movt	r3, #32816	; 0x8030
80303580:	e58d3020 	str	r3, [sp, #32]
80303584:	e30b3bc8 	movw	r3, #48072	; 0xbbc8
80303588:	e3483030 	movt	r3, #32816	; 0x8030
8030358c:	e5933000 	ldr	r3, [r3]
80303590:	e58d3024 	str	r3, [sp, #36]	; 0x24
80303594:	ea000004 	b	803035ac <pvPortMalloc+0x13c>
80303598:	e59d3024 	ldr	r3, [sp, #36]	; 0x24
8030359c:	e58d3020 	str	r3, [sp, #32]
803035a0:	e59d3024 	ldr	r3, [sp, #36]	; 0x24
803035a4:	e5933000 	ldr	r3, [r3]
803035a8:	e58d3024 	str	r3, [sp, #36]	; 0x24
803035ac:	e59d3024 	ldr	r3, [sp, #36]	; 0x24
803035b0:	e5932004 	ldr	r2, [r3, #4]
803035b4:	e59d3004 	ldr	r3, [sp, #4]
803035b8:	e1520003 	cmp	r2, r3
803035bc:	2a000003 	bcs	803035d0 <pvPortMalloc+0x160>
803035c0:	e59d3024 	ldr	r3, [sp, #36]	; 0x24
803035c4:	e5933000 	ldr	r3, [r3]
803035c8:	e3530000 	cmp	r3, #0
803035cc:	1afffff1 	bne	80303598 <pvPortMalloc+0x128>
803035d0:	e59d2024 	ldr	r2, [sp, #36]	; 0x24
803035d4:	e30b3bd0 	movw	r3, #48080	; 0xbbd0
803035d8:	e3483030 	movt	r3, #32816	; 0x8030
803035dc:	e1520003 	cmp	r2, r3
803035e0:	0a000041 	beq	803036ec <pvPortMalloc+0x27c>
803035e4:	e59d3020 	ldr	r3, [sp, #32]
803035e8:	e5932000 	ldr	r2, [r3]
803035ec:	e3053904 	movw	r3, #22788	; 0x5904
803035f0:	e3483030 	movt	r3, #32816	; 0x8030
803035f4:	e1d330b0 	ldrh	r3, [r3]
803035f8:	e0823003 	add	r3, r2, r3
803035fc:	e58d301c 	str	r3, [sp, #28]
80303600:	e59d3024 	ldr	r3, [sp, #36]	; 0x24
80303604:	e5932000 	ldr	r2, [r3]
80303608:	e59d3020 	ldr	r3, [sp, #32]
8030360c:	e5832000 	str	r2, [r3]
80303610:	e59d3024 	ldr	r3, [sp, #36]	; 0x24
80303614:	e5932004 	ldr	r2, [r3, #4]
80303618:	e59d3004 	ldr	r3, [sp, #4]
8030361c:	e0632002 	rsb	r2, r3, r2
80303620:	e3053904 	movw	r3, #22788	; 0x5904
80303624:	e3483030 	movt	r3, #32816	; 0x8030
80303628:	e1d330b0 	ldrh	r3, [r3]
8030362c:	e1a03083 	lsl	r3, r3, #1
80303630:	e1520003 	cmp	r2, r3
80303634:	9a000023 	bls	803036c8 <pvPortMalloc+0x258>
80303638:	e59d2024 	ldr	r2, [sp, #36]	; 0x24
8030363c:	e59d3004 	ldr	r3, [sp, #4]
80303640:	e0823003 	add	r3, r2, r3
80303644:	e58d3010 	str	r3, [sp, #16]
80303648:	e59d3024 	ldr	r3, [sp, #36]	; 0x24
8030364c:	e5932004 	ldr	r2, [r3, #4]
80303650:	e59d3004 	ldr	r3, [sp, #4]
80303654:	e0632002 	rsb	r2, r3, r2
80303658:	e59d3010 	ldr	r3, [sp, #16]
8030365c:	e5832004 	str	r2, [r3, #4]
80303660:	e59d3024 	ldr	r3, [sp, #36]	; 0x24
80303664:	e59d2004 	ldr	r2, [sp, #4]
80303668:	e5832004 	str	r2, [r3, #4]
8030366c:	e59d3010 	ldr	r3, [sp, #16]
80303670:	e5933004 	ldr	r3, [r3, #4]
80303674:	e58d300c 	str	r3, [sp, #12]
80303678:	e30b3bc8 	movw	r3, #48072	; 0xbbc8
8030367c:	e3483030 	movt	r3, #32816	; 0x8030
80303680:	e58d3018 	str	r3, [sp, #24]
80303684:	ea000002 	b	80303694 <pvPortMalloc+0x224>
80303688:	e59d3018 	ldr	r3, [sp, #24]
8030368c:	e5933000 	ldr	r3, [r3]
80303690:	e58d3018 	str	r3, [sp, #24]
80303694:	e59d3018 	ldr	r3, [sp, #24]
80303698:	e5933000 	ldr	r3, [r3]
8030369c:	e5932004 	ldr	r2, [r3, #4]
803036a0:	e59d300c 	ldr	r3, [sp, #12]
803036a4:	e1520003 	cmp	r2, r3
803036a8:	3afffff6 	bcc	80303688 <pvPortMalloc+0x218>
803036ac:	e59d3018 	ldr	r3, [sp, #24]
803036b0:	e5932000 	ldr	r2, [r3]
803036b4:	e59d3010 	ldr	r3, [sp, #16]
803036b8:	e5832000 	str	r2, [r3]
803036bc:	e59d3018 	ldr	r3, [sp, #24]
803036c0:	e59d2010 	ldr	r2, [sp, #16]
803036c4:	e5832000 	str	r2, [r3]
803036c8:	e3053a84 	movw	r3, #23172	; 0x5a84
803036cc:	e3483030 	movt	r3, #32816	; 0x8030
803036d0:	e5932000 	ldr	r2, [r3]
803036d4:	e59d3024 	ldr	r3, [sp, #36]	; 0x24
803036d8:	e5933004 	ldr	r3, [r3, #4]
803036dc:	e0632002 	rsb	r2, r3, r2
803036e0:	e3053a84 	movw	r3, #23172	; 0x5a84
803036e4:	e3483030 	movt	r3, #32816	; 0x8030
803036e8:	e5832000 	str	r2, [r3]
803036ec:	ebfff8a7 	bl	80301990 <xTaskResumeAll>
803036f0:	e59d301c 	ldr	r3, [sp, #28]
803036f4:	e1a00003 	mov	r0, r3
803036f8:	e28dd02c 	add	sp, sp, #44	; 0x2c
803036fc:	e8bd8000 	ldmfd	sp!, {pc}

80303700 <vPortFree>:
80303700:	e52de004 	push	{lr}		; (str lr, [sp, #-4]!)
80303704:	e24dd01c 	sub	sp, sp, #28
80303708:	e58d0004 	str	r0, [sp, #4]
8030370c:	e59d3004 	ldr	r3, [sp, #4]
80303710:	e58d3010 	str	r3, [sp, #16]
80303714:	e59d3004 	ldr	r3, [sp, #4]
80303718:	e3530000 	cmp	r3, #0
8030371c:	0a00002a 	beq	803037cc <vPortFree+0xcc>
80303720:	e3053904 	movw	r3, #22788	; 0x5904
80303724:	e3483030 	movt	r3, #32816	; 0x8030
80303728:	e1d330b0 	ldrh	r3, [r3]
8030372c:	e2633000 	rsb	r3, r3, #0
80303730:	e59d2010 	ldr	r2, [sp, #16]
80303734:	e0823003 	add	r3, r2, r3
80303738:	e58d3010 	str	r3, [sp, #16]
8030373c:	e59d3010 	ldr	r3, [sp, #16]
80303740:	e58d300c 	str	r3, [sp, #12]
80303744:	ebfff889 	bl	80301970 <vTaskSuspendAll>
80303748:	e59d300c 	ldr	r3, [sp, #12]
8030374c:	e5933004 	ldr	r3, [r3, #4]
80303750:	e58d3008 	str	r3, [sp, #8]
80303754:	e30b3bc8 	movw	r3, #48072	; 0xbbc8
80303758:	e3483030 	movt	r3, #32816	; 0x8030
8030375c:	e58d3014 	str	r3, [sp, #20]
80303760:	ea000002 	b	80303770 <vPortFree+0x70>
80303764:	e59d3014 	ldr	r3, [sp, #20]
80303768:	e5933000 	ldr	r3, [r3]
8030376c:	e58d3014 	str	r3, [sp, #20]
80303770:	e59d3014 	ldr	r3, [sp, #20]
80303774:	e5933000 	ldr	r3, [r3]
80303778:	e5932004 	ldr	r2, [r3, #4]
8030377c:	e59d3008 	ldr	r3, [sp, #8]
80303780:	e1520003 	cmp	r2, r3
80303784:	3afffff6 	bcc	80303764 <vPortFree+0x64>
80303788:	e59d3014 	ldr	r3, [sp, #20]
8030378c:	e5932000 	ldr	r2, [r3]
80303790:	e59d300c 	ldr	r3, [sp, #12]
80303794:	e5832000 	str	r2, [r3]
80303798:	e59d3014 	ldr	r3, [sp, #20]
8030379c:	e59d200c 	ldr	r2, [sp, #12]
803037a0:	e5832000 	str	r2, [r3]
803037a4:	e59d300c 	ldr	r3, [sp, #12]
803037a8:	e5932004 	ldr	r2, [r3, #4]
803037ac:	e3053a84 	movw	r3, #23172	; 0x5a84
803037b0:	e3483030 	movt	r3, #32816	; 0x8030
803037b4:	e5933000 	ldr	r3, [r3]
803037b8:	e0822003 	add	r2, r2, r3
803037bc:	e3053a84 	movw	r3, #23172	; 0x5a84
803037c0:	e3483030 	movt	r3, #32816	; 0x8030
803037c4:	e5832000 	str	r2, [r3]
803037c8:	ebfff870 	bl	80301990 <xTaskResumeAll>
803037cc:	e28dd01c 	add	sp, sp, #28
803037d0:	e8bd8000 	ldmfd	sp!, {pc}

803037d4 <xPortGetFreeHeapSize>:
803037d4:	e3053a84 	movw	r3, #23172	; 0x5a84
803037d8:	e3483030 	movt	r3, #32816	; 0x8030
803037dc:	e5933000 	ldr	r3, [r3]
803037e0:	e1a00003 	mov	r0, r3
803037e4:	e12fff1e 	bx	lr

803037e8 <vPortInitialiseBlocks>:
803037e8:	e12fff1e 	bx	lr

803037ec <pxPortInitialiseStack>:
803037ec:	e24dd018 	sub	sp, sp, #24
803037f0:	e58d000c 	str	r0, [sp, #12]
803037f4:	e58d1008 	str	r1, [sp, #8]
803037f8:	e58d2004 	str	r2, [sp, #4]
803037fc:	e59d300c 	ldr	r3, [sp, #12]
80303800:	e58d3014 	str	r3, [sp, #20]
80303804:	e59d3008 	ldr	r3, [sp, #8]
80303808:	e2832004 	add	r2, r3, #4
8030380c:	e59d300c 	ldr	r3, [sp, #12]
80303810:	e5832000 	str	r2, [r3]
80303814:	e59d300c 	ldr	r3, [sp, #12]
80303818:	e2433004 	sub	r3, r3, #4
8030381c:	e58d300c 	str	r3, [sp, #12]
80303820:	e59d200c 	ldr	r2, [sp, #12]
80303824:	e30a3aaa 	movw	r3, #43690	; 0xaaaa
80303828:	e34a3aaa 	movt	r3, #43690	; 0xaaaa
8030382c:	e5823000 	str	r3, [r2]
80303830:	e59d300c 	ldr	r3, [sp, #12]
80303834:	e2433004 	sub	r3, r3, #4
80303838:	e58d300c 	str	r3, [sp, #12]
8030383c:	e59d2014 	ldr	r2, [sp, #20]
80303840:	e59d300c 	ldr	r3, [sp, #12]
80303844:	e5832000 	str	r2, [r3]
80303848:	e59d300c 	ldr	r3, [sp, #12]
8030384c:	e2433004 	sub	r3, r3, #4
80303850:	e58d300c 	str	r3, [sp, #12]
80303854:	e59d200c 	ldr	r2, [sp, #12]
80303858:	e3013212 	movw	r3, #4626	; 0x1212
8030385c:	e3413212 	movt	r3, #4626	; 0x1212
80303860:	e5823000 	str	r3, [r2]
80303864:	e59d300c 	ldr	r3, [sp, #12]
80303868:	e2433004 	sub	r3, r3, #4
8030386c:	e58d300c 	str	r3, [sp, #12]
80303870:	e59d200c 	ldr	r2, [sp, #12]
80303874:	e3013111 	movw	r3, #4369	; 0x1111
80303878:	e3413111 	movt	r3, #4369	; 0x1111
8030387c:	e5823000 	str	r3, [r2]
80303880:	e59d300c 	ldr	r3, [sp, #12]
80303884:	e2433004 	sub	r3, r3, #4
80303888:	e58d300c 	str	r3, [sp, #12]
8030388c:	e59d200c 	ldr	r2, [sp, #12]
80303890:	e3013010 	movw	r3, #4112	; 0x1010
80303894:	e3413010 	movt	r3, #4112	; 0x1010
80303898:	e5823000 	str	r3, [r2]
8030389c:	e59d300c 	ldr	r3, [sp, #12]
803038a0:	e2433004 	sub	r3, r3, #4
803038a4:	e58d300c 	str	r3, [sp, #12]
803038a8:	e59d200c 	ldr	r2, [sp, #12]
803038ac:	e3003909 	movw	r3, #2313	; 0x909
803038b0:	e3403909 	movt	r3, #2313	; 0x909
803038b4:	e5823000 	str	r3, [r2]
803038b8:	e59d300c 	ldr	r3, [sp, #12]
803038bc:	e2433004 	sub	r3, r3, #4
803038c0:	e58d300c 	str	r3, [sp, #12]
803038c4:	e59d200c 	ldr	r2, [sp, #12]
803038c8:	e3003808 	movw	r3, #2056	; 0x808
803038cc:	e3403808 	movt	r3, #2056	; 0x808
803038d0:	e5823000 	str	r3, [r2]
803038d4:	e59d300c 	ldr	r3, [sp, #12]
803038d8:	e2433004 	sub	r3, r3, #4
803038dc:	e58d300c 	str	r3, [sp, #12]
803038e0:	e59d200c 	ldr	r2, [sp, #12]
803038e4:	e3003707 	movw	r3, #1799	; 0x707
803038e8:	e3403707 	movt	r3, #1799	; 0x707
803038ec:	e5823000 	str	r3, [r2]
803038f0:	e59d300c 	ldr	r3, [sp, #12]
803038f4:	e2433004 	sub	r3, r3, #4
803038f8:	e58d300c 	str	r3, [sp, #12]
803038fc:	e59d200c 	ldr	r2, [sp, #12]
80303900:	e3003606 	movw	r3, #1542	; 0x606
80303904:	e3403606 	movt	r3, #1542	; 0x606
80303908:	e5823000 	str	r3, [r2]
8030390c:	e59d300c 	ldr	r3, [sp, #12]
80303910:	e2433004 	sub	r3, r3, #4
80303914:	e58d300c 	str	r3, [sp, #12]
80303918:	e59d200c 	ldr	r2, [sp, #12]
8030391c:	e3003505 	movw	r3, #1285	; 0x505
80303920:	e3403505 	movt	r3, #1285	; 0x505
80303924:	e5823000 	str	r3, [r2]
80303928:	e59d300c 	ldr	r3, [sp, #12]
8030392c:	e2433004 	sub	r3, r3, #4
80303930:	e58d300c 	str	r3, [sp, #12]
80303934:	e59d200c 	ldr	r2, [sp, #12]
80303938:	e3003404 	movw	r3, #1028	; 0x404
8030393c:	e3403404 	movt	r3, #1028	; 0x404
80303940:	e5823000 	str	r3, [r2]
80303944:	e59d300c 	ldr	r3, [sp, #12]
80303948:	e2433004 	sub	r3, r3, #4
8030394c:	e58d300c 	str	r3, [sp, #12]
80303950:	e59d200c 	ldr	r2, [sp, #12]
80303954:	e3003303 	movw	r3, #771	; 0x303
80303958:	e3403303 	movt	r3, #771	; 0x303
8030395c:	e5823000 	str	r3, [r2]
80303960:	e59d300c 	ldr	r3, [sp, #12]
80303964:	e2433004 	sub	r3, r3, #4
80303968:	e58d300c 	str	r3, [sp, #12]
8030396c:	e59d200c 	ldr	r2, [sp, #12]
80303970:	e3003202 	movw	r3, #514	; 0x202
80303974:	e3403202 	movt	r3, #514	; 0x202
80303978:	e5823000 	str	r3, [r2]
8030397c:	e59d300c 	ldr	r3, [sp, #12]
80303980:	e2433004 	sub	r3, r3, #4
80303984:	e58d300c 	str	r3, [sp, #12]
80303988:	e59d200c 	ldr	r2, [sp, #12]
8030398c:	e3003101 	movw	r3, #257	; 0x101
80303990:	e3403101 	movt	r3, #257	; 0x101
80303994:	e5823000 	str	r3, [r2]
80303998:	e59d300c 	ldr	r3, [sp, #12]
8030399c:	e2433004 	sub	r3, r3, #4
803039a0:	e58d300c 	str	r3, [sp, #12]
803039a4:	e59d2004 	ldr	r2, [sp, #4]
803039a8:	e59d300c 	ldr	r3, [sp, #12]
803039ac:	e5832000 	str	r2, [r3]
803039b0:	e59d300c 	ldr	r3, [sp, #12]
803039b4:	e2433004 	sub	r3, r3, #4
803039b8:	e58d300c 	str	r3, [sp, #12]
803039bc:	e59d300c 	ldr	r3, [sp, #12]
803039c0:	e3a0205f 	mov	r2, #95	; 0x5f
803039c4:	e5832000 	str	r2, [r3]
803039c8:	e59d3008 	ldr	r3, [sp, #8]
803039cc:	e2033001 	and	r3, r3, #1
803039d0:	e3530000 	cmp	r3, #0
803039d4:	0a000004 	beq	803039ec <pxPortInitialiseStack+0x200>
803039d8:	e59d300c 	ldr	r3, [sp, #12]
803039dc:	e5933000 	ldr	r3, [r3]
803039e0:	e3832020 	orr	r2, r3, #32
803039e4:	e59d300c 	ldr	r3, [sp, #12]
803039e8:	e5832000 	str	r2, [r3]
803039ec:	e59d300c 	ldr	r3, [sp, #12]
803039f0:	e2433004 	sub	r3, r3, #4
803039f4:	e58d300c 	str	r3, [sp, #12]
803039f8:	e59d300c 	ldr	r3, [sp, #12]
803039fc:	e3a02000 	mov	r2, #0
80303a00:	e5832000 	str	r2, [r3]
80303a04:	e59d300c 	ldr	r3, [sp, #12]
80303a08:	e1a00003 	mov	r0, r3
80303a0c:	e28dd018 	add	sp, sp, #24
80303a10:	e12fff1e 	bx	lr

80303a14 <xPortStartScheduler>:
80303a14:	e92d4008 	push	{r3, lr}
80303a18:	e3050908 	movw	r0, #22792	; 0x5908
80303a1c:	e3480030 	movt	r0, #32816	; 0x8030
80303a20:	eb000076 	bl	80303c00 <serial_puts>
80303a24:	eb000007 	bl	80303a48 <prvSetupTimerInterrupt>
80303a28:	e305092c 	movw	r0, #22828	; 0x592c
80303a2c:	e3480030 	movt	r0, #32816	; 0x8030
80303a30:	eb000072 	bl	80303c00 <serial_puts>
80303a34:	ebfff182 	bl	80300044 <vPortISRStartFirstTask>
80303a38:	e3a03000 	mov	r3, #0
80303a3c:	e1a00003 	mov	r0, r3
80303a40:	e8bd8008 	pop	{r3, pc}

80303a44 <vPortEndScheduler>:
80303a44:	e12fff1e 	bx	lr

80303a48 <prvSetupTimerInterrupt>:
80303a48:	e24dd008 	sub	sp, sp, #8
80303a4c:	e3a03010 	mov	r3, #16
80303a50:	e3443820 	movt	r3, #18464	; 0x4820
80303a54:	e3a02002 	mov	r2, #2
80303a58:	e5832000 	str	r2, [r3]
80303a5c:	e3a03050 	mov	r3, #80	; 0x50
80303a60:	e3443820 	movt	r3, #18464	; 0x4820
80303a64:	e3a02001 	mov	r2, #1
80303a68:	e5832000 	str	r2, [r3]
80303a6c:	e3a030a8 	mov	r3, #168	; 0xa8
80303a70:	e3443820 	movt	r3, #18464	; 0x4820
80303a74:	e3a020a4 	mov	r2, #164	; 0xa4
80303a78:	e3442820 	movt	r2, #18464	; 0x4820
80303a7c:	e5922000 	ldr	r2, [r2]
80303a80:	e1e02002 	mvn	r2, r2
80303a84:	e3822020 	orr	r2, r2, #32
80303a88:	e5832000 	str	r2, [r3]
80303a8c:	e3a030c8 	mov	r3, #200	; 0xc8
80303a90:	e3443820 	movt	r3, #18464	; 0x4820
80303a94:	e3a020c4 	mov	r2, #196	; 0xc4
80303a98:	e3442820 	movt	r2, #18464	; 0x4820
80303a9c:	e5922000 	ldr	r2, [r2]
80303aa0:	e1e02002 	mvn	r2, r2
80303aa4:	e3822b01 	orr	r2, r2, #1024	; 0x400
80303aa8:	e5832000 	str	r2, [r3]
80303aac:	e3a03d7d 	mov	r3, #8000	; 0x1f40
80303ab0:	e58d3004 	str	r3, [sp, #4]
80303ab4:	e30f3fe8 	movw	r3, #65512	; 0xffe8
80303ab8:	e3443020 	movt	r3, #16416	; 0x4020
80303abc:	e3002154 	movw	r2, #340	; 0x154
80303ac0:	e3482030 	movt	r2, #32816	; 0x8030
80303ac4:	e5832000 	str	r2, [r3]
80303ac8:	e30f3ff8 	movw	r3, #65528	; 0xfff8
80303acc:	e3443020 	movt	r3, #16416	; 0x4020
80303ad0:	e3002090 	movw	r2, #144	; 0x90
80303ad4:	e3482030 	movt	r2, #32816	; 0x8030
80303ad8:	e5832000 	str	r2, [r3]
80303adc:	e3083010 	movw	r3, #32784	; 0x8010
80303ae0:	e3443831 	movt	r3, #18481	; 0x4831
80303ae4:	e3a02002 	mov	r2, #2
80303ae8:	e5832000 	str	r2, [r3]
80303aec:	e308302c 	movw	r3, #32812	; 0x802c
80303af0:	e3443831 	movt	r3, #18481	; 0x4831
80303af4:	e3a02000 	mov	r2, #0
80303af8:	e5832000 	str	r2, [r3]
80303afc:	e3083028 	movw	r3, #32808	; 0x8028
80303b00:	e3443831 	movt	r3, #18481	; 0x4831
80303b04:	e3a02000 	mov	r2, #0
80303b08:	e5832000 	str	r2, [r3]
80303b0c:	e3083038 	movw	r3, #32824	; 0x8038
80303b10:	e3443831 	movt	r3, #18481	; 0x4831
80303b14:	e59d2004 	ldr	r2, [sp, #4]
80303b18:	e5832000 	str	r2, [r3]
80303b1c:	e3083018 	movw	r3, #32792	; 0x8018
80303b20:	e3443831 	movt	r3, #18481	; 0x4831
80303b24:	e3a02001 	mov	r2, #1
80303b28:	e5832000 	str	r2, [r3]
80303b2c:	e308301c 	movw	r3, #32796	; 0x801c
80303b30:	e3443831 	movt	r3, #18481	; 0x4831
80303b34:	e3a02001 	mov	r2, #1
80303b38:	e5832000 	str	r2, [r3]
80303b3c:	e3083024 	movw	r3, #32804	; 0x8024
80303b40:	e3443831 	movt	r3, #18481	; 0x4831
80303b44:	e3a02043 	mov	r2, #67	; 0x43
80303b48:	e5832000 	str	r2, [r3]
80303b4c:	e3083030 	movw	r3, #32816	; 0x8030
80303b50:	e3443831 	movt	r3, #18481	; 0x4831
80303b54:	e3a020ff 	mov	r2, #255	; 0xff
80303b58:	e5832000 	str	r2, [r3]
80303b5c:	e28dd008 	add	sp, sp, #8
80303b60:	e12fff1e 	bx	lr

80303b64 <calc_divisor>:
80303b64:	e3a0301a 	mov	r3, #26
80303b68:	e1a00003 	mov	r0, r3
80303b6c:	e12fff1e 	bx	lr

80303b70 <serial_init>:
80303b70:	e52de004 	push	{lr}		; (str lr, [sp, #-4]!)
80303b74:	e24dd00c 	sub	sp, sp, #12
80303b78:	ebfffff9 	bl	80303b64 <calc_divisor>
80303b7c:	e58d0004 	str	r0, [sp, #4]
80303b80:	e3053a88 	movw	r3, #23176	; 0x5a88
80303b84:	e3483030 	movt	r3, #32816	; 0x8030
80303b88:	e5933000 	ldr	r3, [r3]
80303b8c:	e1a00003 	mov	r0, r3
80303b90:	e59d1004 	ldr	r1, [sp, #4]
80303b94:	eb000048 	bl	80303cbc <NS16550_init>
80303b98:	e3a03000 	mov	r3, #0
80303b9c:	e1a00003 	mov	r0, r3
80303ba0:	e28dd00c 	add	sp, sp, #12
80303ba4:	e8bd8000 	ldmfd	sp!, {pc}

80303ba8 <serial_putc>:
80303ba8:	e52de004 	push	{lr}		; (str lr, [sp, #-4]!)
80303bac:	e24dd00c 	sub	sp, sp, #12
80303bb0:	e1a03000 	mov	r3, r0
80303bb4:	e5cd3007 	strb	r3, [sp, #7]
80303bb8:	e5dd3007 	ldrb	r3, [sp, #7]
80303bbc:	e353000a 	cmp	r3, #10
80303bc0:	1a000005 	bne	80303bdc <serial_putc+0x34>
80303bc4:	e3053a88 	movw	r3, #23176	; 0x5a88
80303bc8:	e3483030 	movt	r3, #32816	; 0x8030
80303bcc:	e5933000 	ldr	r3, [r3]
80303bd0:	e1a00003 	mov	r0, r3
80303bd4:	e3a0100d 	mov	r1, #13
80303bd8:	eb000071 	bl	80303da4 <NS16550_putc>
80303bdc:	e3053a88 	movw	r3, #23176	; 0x5a88
80303be0:	e3483030 	movt	r3, #32816	; 0x8030
80303be4:	e5932000 	ldr	r2, [r3]
80303be8:	e5dd3007 	ldrb	r3, [sp, #7]
80303bec:	e1a00002 	mov	r0, r2
80303bf0:	e1a01003 	mov	r1, r3
80303bf4:	eb00006a 	bl	80303da4 <NS16550_putc>
80303bf8:	e28dd00c 	add	sp, sp, #12
80303bfc:	e8bd8000 	ldmfd	sp!, {pc}

80303c00 <serial_puts>:
80303c00:	e52de004 	push	{lr}		; (str lr, [sp, #-4]!)
80303c04:	e24dd00c 	sub	sp, sp, #12
80303c08:	e58d0004 	str	r0, [sp, #4]
80303c0c:	ea000006 	b	80303c2c <serial_puts+0x2c>
80303c10:	e59d3004 	ldr	r3, [sp, #4]
80303c14:	e5d33000 	ldrb	r3, [r3]
80303c18:	e59d2004 	ldr	r2, [sp, #4]
80303c1c:	e2822001 	add	r2, r2, #1
80303c20:	e58d2004 	str	r2, [sp, #4]
80303c24:	e1a00003 	mov	r0, r3
80303c28:	ebffffde 	bl	80303ba8 <serial_putc>
80303c2c:	e59d3004 	ldr	r3, [sp, #4]
80303c30:	e5d33000 	ldrb	r3, [r3]
80303c34:	e3530000 	cmp	r3, #0
80303c38:	1afffff4 	bne	80303c10 <serial_puts+0x10>
80303c3c:	e28dd00c 	add	sp, sp, #12
80303c40:	e8bd8000 	ldmfd	sp!, {pc}

80303c44 <serial_getc>:
80303c44:	e92d4008 	push	{r3, lr}
80303c48:	e3053a88 	movw	r3, #23176	; 0x5a88
80303c4c:	e3483030 	movt	r3, #32816	; 0x8030
80303c50:	e5933000 	ldr	r3, [r3]
80303c54:	e1a00003 	mov	r0, r3
80303c58:	eb000061 	bl	80303de4 <NS16550_getc>
80303c5c:	e1a03000 	mov	r3, r0
80303c60:	e1a00003 	mov	r0, r3
80303c64:	e8bd8008 	pop	{r3, pc}

80303c68 <serial_tstc>:
80303c68:	e92d4008 	push	{r3, lr}
80303c6c:	e3053a88 	movw	r3, #23176	; 0x5a88
80303c70:	e3483030 	movt	r3, #32816	; 0x8030
80303c74:	e5933000 	ldr	r3, [r3]
80303c78:	e1a00003 	mov	r0, r3
80303c7c:	eb000067 	bl	80303e20 <NS16550_tstc>
80303c80:	e1a03000 	mov	r3, r0
80303c84:	e1a00003 	mov	r0, r3
80303c88:	e8bd8008 	pop	{r3, pc}

80303c8c <serial_setbrg>:
80303c8c:	e52de004 	push	{lr}		; (str lr, [sp, #-4]!)
80303c90:	e24dd00c 	sub	sp, sp, #12
80303c94:	ebffffb2 	bl	80303b64 <calc_divisor>
80303c98:	e58d0004 	str	r0, [sp, #4]
80303c9c:	e3053a88 	movw	r3, #23176	; 0x5a88
80303ca0:	e3483030 	movt	r3, #32816	; 0x8030
80303ca4:	e5933000 	ldr	r3, [r3]
80303ca8:	e1a00003 	mov	r0, r3
80303cac:	e59d1004 	ldr	r1, [sp, #4]
80303cb0:	eb00001e 	bl	80303d30 <NS16550_reinit>
80303cb4:	e28dd00c 	add	sp, sp, #12
80303cb8:	e8bd8000 	ldmfd	sp!, {pc}

80303cbc <NS16550_init>:
80303cbc:	e24dd008 	sub	sp, sp, #8
80303cc0:	e58d0004 	str	r0, [sp, #4]
80303cc4:	e58d1000 	str	r1, [sp]
80303cc8:	e59d3004 	ldr	r3, [sp, #4]
80303ccc:	e3a02000 	mov	r2, #0
80303cd0:	e5c32004 	strb	r2, [r3, #4]
80303cd4:	e59d3004 	ldr	r3, [sp, #4]
80303cd8:	e3e0207c 	mvn	r2, #124	; 0x7c
80303cdc:	e5c3200c 	strb	r2, [r3, #12]
80303ce0:	e59d3000 	ldr	r3, [sp]
80303ce4:	e6ef2073 	uxtb	r2, r3
80303ce8:	e59d3004 	ldr	r3, [sp, #4]
80303cec:	e5c32000 	strb	r2, [r3]
80303cf0:	e59d3000 	ldr	r3, [sp]
80303cf4:	e1a03443 	asr	r3, r3, #8
80303cf8:	e6ef2073 	uxtb	r2, r3
80303cfc:	e59d3004 	ldr	r3, [sp, #4]
80303d00:	e5c32004 	strb	r2, [r3, #4]
80303d04:	e59d3004 	ldr	r3, [sp, #4]
80303d08:	e3a02003 	mov	r2, #3
80303d0c:	e5c3200c 	strb	r2, [r3, #12]
80303d10:	e59d3004 	ldr	r3, [sp, #4]
80303d14:	e3a02003 	mov	r2, #3
80303d18:	e5c32010 	strb	r2, [r3, #16]
80303d1c:	e59d3004 	ldr	r3, [sp, #4]
80303d20:	e3a02007 	mov	r2, #7
80303d24:	e5c32008 	strb	r2, [r3, #8]
80303d28:	e28dd008 	add	sp, sp, #8
80303d2c:	e12fff1e 	bx	lr

80303d30 <NS16550_reinit>:
80303d30:	e24dd008 	sub	sp, sp, #8
80303d34:	e58d0004 	str	r0, [sp, #4]
80303d38:	e58d1000 	str	r1, [sp]
80303d3c:	e59d3004 	ldr	r3, [sp, #4]
80303d40:	e3a02000 	mov	r2, #0
80303d44:	e5c32004 	strb	r2, [r3, #4]
80303d48:	e59d3004 	ldr	r3, [sp, #4]
80303d4c:	e3e0207f 	mvn	r2, #127	; 0x7f
80303d50:	e5c3200c 	strb	r2, [r3, #12]
80303d54:	e59d3000 	ldr	r3, [sp]
80303d58:	e6ef2073 	uxtb	r2, r3
80303d5c:	e59d3004 	ldr	r3, [sp, #4]
80303d60:	e5c32000 	strb	r2, [r3]
80303d64:	e59d3000 	ldr	r3, [sp]
80303d68:	e1a03443 	asr	r3, r3, #8
80303d6c:	e6ef2073 	uxtb	r2, r3
80303d70:	e59d3004 	ldr	r3, [sp, #4]
80303d74:	e5c32004 	strb	r2, [r3, #4]
80303d78:	e59d3004 	ldr	r3, [sp, #4]
80303d7c:	e3a02003 	mov	r2, #3
80303d80:	e5c3200c 	strb	r2, [r3, #12]
80303d84:	e59d3004 	ldr	r3, [sp, #4]
80303d88:	e3a02003 	mov	r2, #3
80303d8c:	e5c32010 	strb	r2, [r3, #16]
80303d90:	e59d3004 	ldr	r3, [sp, #4]
80303d94:	e3a02007 	mov	r2, #7
80303d98:	e5c32008 	strb	r2, [r3, #8]
80303d9c:	e28dd008 	add	sp, sp, #8
80303da0:	e12fff1e 	bx	lr

80303da4 <NS16550_putc>:
80303da4:	e24dd008 	sub	sp, sp, #8
80303da8:	e58d0004 	str	r0, [sp, #4]
80303dac:	e1a03001 	mov	r3, r1
80303db0:	e5cd3003 	strb	r3, [sp, #3]
80303db4:	e1a00000 	nop			; (mov r0, r0)
80303db8:	e59d3004 	ldr	r3, [sp, #4]
80303dbc:	e5d33014 	ldrb	r3, [r3, #20]
80303dc0:	e6ef3073 	uxtb	r3, r3
80303dc4:	e2033020 	and	r3, r3, #32
80303dc8:	e3530000 	cmp	r3, #0
80303dcc:	0afffff9 	beq	80303db8 <NS16550_putc+0x14>
80303dd0:	e59d3004 	ldr	r3, [sp, #4]
80303dd4:	e5dd2003 	ldrb	r2, [sp, #3]
80303dd8:	e5c32000 	strb	r2, [r3]
80303ddc:	e28dd008 	add	sp, sp, #8
80303de0:	e12fff1e 	bx	lr

80303de4 <NS16550_getc>:
80303de4:	e24dd008 	sub	sp, sp, #8
80303de8:	e58d0004 	str	r0, [sp, #4]
80303dec:	e1a00000 	nop			; (mov r0, r0)
80303df0:	e59d3004 	ldr	r3, [sp, #4]
80303df4:	e5d33014 	ldrb	r3, [r3, #20]
80303df8:	e6ef3073 	uxtb	r3, r3
80303dfc:	e2033001 	and	r3, r3, #1
80303e00:	e3530000 	cmp	r3, #0
80303e04:	0afffff9 	beq	80303df0 <NS16550_getc+0xc>
80303e08:	e59d3004 	ldr	r3, [sp, #4]
80303e0c:	e5d33000 	ldrb	r3, [r3]
80303e10:	e6ef3073 	uxtb	r3, r3
80303e14:	e1a00003 	mov	r0, r3
80303e18:	e28dd008 	add	sp, sp, #8
80303e1c:	e12fff1e 	bx	lr

80303e20 <NS16550_tstc>:
80303e20:	e24dd008 	sub	sp, sp, #8
80303e24:	e58d0004 	str	r0, [sp, #4]
80303e28:	e59d3004 	ldr	r3, [sp, #4]
80303e2c:	e5d33014 	ldrb	r3, [r3, #20]
80303e30:	e6ef3073 	uxtb	r3, r3
80303e34:	e2033001 	and	r3, r3, #1
80303e38:	e3530000 	cmp	r3, #0
80303e3c:	03a03000 	moveq	r3, #0
80303e40:	13a03001 	movne	r3, #1
80303e44:	e6ef3073 	uxtb	r3, r3
80303e48:	e1a00003 	mov	r0, r3
80303e4c:	e28dd008 	add	sp, sp, #8
80303e50:	e12fff1e 	bx	lr

80303e54 <strnlen>:
80303e54:	e24dd010 	sub	sp, sp, #16
80303e58:	e58d0004 	str	r0, [sp, #4]
80303e5c:	e58d1000 	str	r1, [sp]
80303e60:	e59d3004 	ldr	r3, [sp, #4]
80303e64:	e58d300c 	str	r3, [sp, #12]
80303e68:	ea000002 	b	80303e78 <strnlen+0x24>
80303e6c:	e59d300c 	ldr	r3, [sp, #12]
80303e70:	e2833001 	add	r3, r3, #1
80303e74:	e58d300c 	str	r3, [sp, #12]
80303e78:	e59d3000 	ldr	r3, [sp]
80303e7c:	e3530000 	cmp	r3, #0
80303e80:	03a03000 	moveq	r3, #0
80303e84:	13a03001 	movne	r3, #1
80303e88:	e6ef3073 	uxtb	r3, r3
80303e8c:	e59d2000 	ldr	r2, [sp]
80303e90:	e2422001 	sub	r2, r2, #1
80303e94:	e58d2000 	str	r2, [sp]
80303e98:	e3530000 	cmp	r3, #0
80303e9c:	0a000003 	beq	80303eb0 <strnlen+0x5c>
80303ea0:	e59d300c 	ldr	r3, [sp, #12]
80303ea4:	e5d33000 	ldrb	r3, [r3]
80303ea8:	e3530000 	cmp	r3, #0
80303eac:	1affffee 	bne	80303e6c <strnlen+0x18>
80303eb0:	e59d200c 	ldr	r2, [sp, #12]
80303eb4:	e59d3004 	ldr	r3, [sp, #4]
80303eb8:	e0633002 	rsb	r3, r3, r2
80303ebc:	e1a00003 	mov	r0, r3
80303ec0:	e28dd010 	add	sp, sp, #16
80303ec4:	e12fff1e 	bx	lr

80303ec8 <skip_atoi>:
80303ec8:	e24dd010 	sub	sp, sp, #16
80303ecc:	e58d0004 	str	r0, [sp, #4]
80303ed0:	e3a03000 	mov	r3, #0
80303ed4:	e58d300c 	str	r3, [sp, #12]
80303ed8:	ea00000e 	b	80303f18 <skip_atoi+0x50>
80303edc:	e59d200c 	ldr	r2, [sp, #12]
80303ee0:	e1a03002 	mov	r3, r2
80303ee4:	e1a03103 	lsl	r3, r3, #2
80303ee8:	e0833002 	add	r3, r3, r2
80303eec:	e1a03083 	lsl	r3, r3, #1
80303ef0:	e1a01003 	mov	r1, r3
80303ef4:	e59d3004 	ldr	r3, [sp, #4]
80303ef8:	e5933000 	ldr	r3, [r3]
80303efc:	e5d32000 	ldrb	r2, [r3]
80303f00:	e0812002 	add	r2, r1, r2
80303f04:	e2422030 	sub	r2, r2, #48	; 0x30
80303f08:	e58d200c 	str	r2, [sp, #12]
80303f0c:	e2832001 	add	r2, r3, #1
80303f10:	e59d3004 	ldr	r3, [sp, #4]
80303f14:	e5832000 	str	r2, [r3]
80303f18:	e59d3004 	ldr	r3, [sp, #4]
80303f1c:	e5933000 	ldr	r3, [r3]
80303f20:	e5d33000 	ldrb	r3, [r3]
80303f24:	e353002f 	cmp	r3, #47	; 0x2f
80303f28:	9a000004 	bls	80303f40 <skip_atoi+0x78>
80303f2c:	e59d3004 	ldr	r3, [sp, #4]
80303f30:	e5933000 	ldr	r3, [r3]
80303f34:	e5d33000 	ldrb	r3, [r3]
80303f38:	e3530039 	cmp	r3, #57	; 0x39
80303f3c:	9affffe6 	bls	80303edc <skip_atoi+0x14>
80303f40:	e59d300c 	ldr	r3, [sp, #12]
80303f44:	e1a00003 	mov	r0, r3
80303f48:	e28dd010 	add	sp, sp, #16
80303f4c:	e12fff1e 	bx	lr

80303f50 <number>:
80303f50:	e52de004 	push	{lr}		; (str lr, [sp, #-4]!)
80303f54:	e24dd06c 	sub	sp, sp, #108	; 0x6c
80303f58:	e58d000c 	str	r0, [sp, #12]
80303f5c:	e58d1008 	str	r1, [sp, #8]
80303f60:	e58d2004 	str	r2, [sp, #4]
80303f64:	e58d3000 	str	r3, [sp]
80303f68:	e3053954 	movw	r3, #22868	; 0x5954
80303f6c:	e3483030 	movt	r3, #32816	; 0x8030
80303f70:	e58d3060 	str	r3, [sp, #96]	; 0x60
80303f74:	e59d3074 	ldr	r3, [sp, #116]	; 0x74
80303f78:	e2033040 	and	r3, r3, #64	; 0x40
80303f7c:	e3530000 	cmp	r3, #0
80303f80:	0a000002 	beq	80303f90 <number+0x40>
80303f84:	e305397c 	movw	r3, #22908	; 0x597c
80303f88:	e3483030 	movt	r3, #32816	; 0x8030
80303f8c:	e58d3060 	str	r3, [sp, #96]	; 0x60
80303f90:	e59d3074 	ldr	r3, [sp, #116]	; 0x74
80303f94:	e2033010 	and	r3, r3, #16
80303f98:	e3530000 	cmp	r3, #0
80303f9c:	0a000002 	beq	80303fac <number+0x5c>
80303fa0:	e59d3074 	ldr	r3, [sp, #116]	; 0x74
80303fa4:	e3c33001 	bic	r3, r3, #1
80303fa8:	e58d3074 	str	r3, [sp, #116]	; 0x74
80303fac:	e59d3004 	ldr	r3, [sp, #4]
80303fb0:	e3530001 	cmp	r3, #1
80303fb4:	da000002 	ble	80303fc4 <number+0x74>
80303fb8:	e59d3004 	ldr	r3, [sp, #4]
80303fbc:	e3530024 	cmp	r3, #36	; 0x24
80303fc0:	da000001 	ble	80303fcc <number+0x7c>
80303fc4:	e3a03000 	mov	r3, #0
80303fc8:	ea000102 	b	803043d8 <number+0x488>
80303fcc:	e59d3074 	ldr	r3, [sp, #116]	; 0x74
80303fd0:	e2033001 	and	r3, r3, #1
80303fd4:	e3530000 	cmp	r3, #0
80303fd8:	0a000001 	beq	80303fe4 <number+0x94>
80303fdc:	e3a03030 	mov	r3, #48	; 0x30
80303fe0:	ea000000 	b	80303fe8 <number+0x98>
80303fe4:	e3a03020 	mov	r3, #32
80303fe8:	e5cd305b 	strb	r3, [sp, #91]	; 0x5b
80303fec:	e3a03000 	mov	r3, #0
80303ff0:	e5cd3067 	strb	r3, [sp, #103]	; 0x67
80303ff4:	e59d3074 	ldr	r3, [sp, #116]	; 0x74
80303ff8:	e2033002 	and	r3, r3, #2
80303ffc:	e3530000 	cmp	r3, #0
80304000:	0a00001e 	beq	80304080 <number+0x130>
80304004:	e59d3008 	ldr	r3, [sp, #8]
80304008:	e3530000 	cmp	r3, #0
8030400c:	aa000008 	bge	80304034 <number+0xe4>
80304010:	e3a0302d 	mov	r3, #45	; 0x2d
80304014:	e5cd3067 	strb	r3, [sp, #103]	; 0x67
80304018:	e59d3008 	ldr	r3, [sp, #8]
8030401c:	e2633000 	rsb	r3, r3, #0
80304020:	e58d3008 	str	r3, [sp, #8]
80304024:	e59d3000 	ldr	r3, [sp]
80304028:	e2433001 	sub	r3, r3, #1
8030402c:	e58d3000 	str	r3, [sp]
80304030:	ea000012 	b	80304080 <number+0x130>
80304034:	e59d3074 	ldr	r3, [sp, #116]	; 0x74
80304038:	e2033004 	and	r3, r3, #4
8030403c:	e3530000 	cmp	r3, #0
80304040:	0a000005 	beq	8030405c <number+0x10c>
80304044:	e3a0302b 	mov	r3, #43	; 0x2b
80304048:	e5cd3067 	strb	r3, [sp, #103]	; 0x67
8030404c:	e59d3000 	ldr	r3, [sp]
80304050:	e2433001 	sub	r3, r3, #1
80304054:	e58d3000 	str	r3, [sp]
80304058:	ea000008 	b	80304080 <number+0x130>
8030405c:	e59d3074 	ldr	r3, [sp, #116]	; 0x74
80304060:	e2033008 	and	r3, r3, #8
80304064:	e3530000 	cmp	r3, #0
80304068:	0a000004 	beq	80304080 <number+0x130>
8030406c:	e3a03020 	mov	r3, #32
80304070:	e5cd3067 	strb	r3, [sp, #103]	; 0x67
80304074:	e59d3000 	ldr	r3, [sp]
80304078:	e2433001 	sub	r3, r3, #1
8030407c:	e58d3000 	str	r3, [sp]
80304080:	e59d3074 	ldr	r3, [sp, #116]	; 0x74
80304084:	e2033020 	and	r3, r3, #32
80304088:	e3530000 	cmp	r3, #0
8030408c:	0a00000c 	beq	803040c4 <number+0x174>
80304090:	e59d3004 	ldr	r3, [sp, #4]
80304094:	e3530010 	cmp	r3, #16
80304098:	1a000003 	bne	803040ac <number+0x15c>
8030409c:	e59d3000 	ldr	r3, [sp]
803040a0:	e2433002 	sub	r3, r3, #2
803040a4:	e58d3000 	str	r3, [sp]
803040a8:	ea000005 	b	803040c4 <number+0x174>
803040ac:	e59d3004 	ldr	r3, [sp, #4]
803040b0:	e3530008 	cmp	r3, #8
803040b4:	1a000002 	bne	803040c4 <number+0x174>
803040b8:	e59d3000 	ldr	r3, [sp]
803040bc:	e2433001 	sub	r3, r3, #1
803040c0:	e58d3000 	str	r3, [sp]
803040c4:	e3a03000 	mov	r3, #0
803040c8:	e58d305c 	str	r3, [sp, #92]	; 0x5c
803040cc:	e59d3008 	ldr	r3, [sp, #8]
803040d0:	e3530000 	cmp	r3, #0
803040d4:	1a000025 	bne	80304170 <number+0x220>
803040d8:	e3e03057 	mvn	r3, #87	; 0x57
803040dc:	e59d205c 	ldr	r2, [sp, #92]	; 0x5c
803040e0:	e28d0068 	add	r0, sp, #104	; 0x68
803040e4:	e0802002 	add	r2, r0, r2
803040e8:	e0823003 	add	r3, r2, r3
803040ec:	e3a02030 	mov	r2, #48	; 0x30
803040f0:	e5c32000 	strb	r2, [r3]
803040f4:	e59d305c 	ldr	r3, [sp, #92]	; 0x5c
803040f8:	e2833001 	add	r3, r3, #1
803040fc:	e58d305c 	str	r3, [sp, #92]	; 0x5c
80304100:	ea00001d 	b	8030417c <number+0x22c>
80304104:	e59d2008 	ldr	r2, [sp, #8]
80304108:	e59d3004 	ldr	r3, [sp, #4]
8030410c:	e1a00002 	mov	r0, r2
80304110:	e1a01003 	mov	r1, r3
80304114:	eb0004b0 	bl	803053dc <__aeabi_uidivmod>
80304118:	e1a03001 	mov	r3, r1
8030411c:	e58d3054 	str	r3, [sp, #84]	; 0x54
80304120:	e59d2008 	ldr	r2, [sp, #8]
80304124:	e59d3004 	ldr	r3, [sp, #4]
80304128:	e1a00002 	mov	r0, r2
8030412c:	e1a01003 	mov	r1, r3
80304130:	eb00046c 	bl	803052e8 <__aeabi_uidiv>
80304134:	e1a03000 	mov	r3, r0
80304138:	e58d3008 	str	r3, [sp, #8]
8030413c:	e59d3054 	ldr	r3, [sp, #84]	; 0x54
80304140:	e59d2060 	ldr	r2, [sp, #96]	; 0x60
80304144:	e0823003 	add	r3, r2, r3
80304148:	e5d32000 	ldrb	r2, [r3]
8030414c:	e3e03057 	mvn	r3, #87	; 0x57
80304150:	e59d105c 	ldr	r1, [sp, #92]	; 0x5c
80304154:	e28d0068 	add	r0, sp, #104	; 0x68
80304158:	e0801001 	add	r1, r0, r1
8030415c:	e0813003 	add	r3, r1, r3
80304160:	e5c32000 	strb	r2, [r3]
80304164:	e59d305c 	ldr	r3, [sp, #92]	; 0x5c
80304168:	e2833001 	add	r3, r3, #1
8030416c:	e58d305c 	str	r3, [sp, #92]	; 0x5c
80304170:	e59d3008 	ldr	r3, [sp, #8]
80304174:	e3530000 	cmp	r3, #0
80304178:	1affffe1 	bne	80304104 <number+0x1b4>
8030417c:	e59d205c 	ldr	r2, [sp, #92]	; 0x5c
80304180:	e59d3070 	ldr	r3, [sp, #112]	; 0x70
80304184:	e1520003 	cmp	r2, r3
80304188:	da000001 	ble	80304194 <number+0x244>
8030418c:	e59d305c 	ldr	r3, [sp, #92]	; 0x5c
80304190:	e58d3070 	str	r3, [sp, #112]	; 0x70
80304194:	e59d2000 	ldr	r2, [sp]
80304198:	e59d3070 	ldr	r3, [sp, #112]	; 0x70
8030419c:	e0633002 	rsb	r3, r3, r2
803041a0:	e58d3000 	str	r3, [sp]
803041a4:	e59d3074 	ldr	r3, [sp, #116]	; 0x74
803041a8:	e2033011 	and	r3, r3, #17
803041ac:	e3530000 	cmp	r3, #0
803041b0:	1a000010 	bne	803041f8 <number+0x2a8>
803041b4:	ea000005 	b	803041d0 <number+0x280>
803041b8:	e59d300c 	ldr	r3, [sp, #12]
803041bc:	e3a02020 	mov	r2, #32
803041c0:	e5c32000 	strb	r2, [r3]
803041c4:	e59d300c 	ldr	r3, [sp, #12]
803041c8:	e2833001 	add	r3, r3, #1
803041cc:	e58d300c 	str	r3, [sp, #12]
803041d0:	e59d3000 	ldr	r3, [sp]
803041d4:	e3530000 	cmp	r3, #0
803041d8:	d3a03000 	movle	r3, #0
803041dc:	c3a03001 	movgt	r3, #1
803041e0:	e6ef3073 	uxtb	r3, r3
803041e4:	e59d2000 	ldr	r2, [sp]
803041e8:	e2422001 	sub	r2, r2, #1
803041ec:	e58d2000 	str	r2, [sp]
803041f0:	e3530000 	cmp	r3, #0
803041f4:	1affffef 	bne	803041b8 <number+0x268>
803041f8:	e5dd3067 	ldrb	r3, [sp, #103]	; 0x67
803041fc:	e3530000 	cmp	r3, #0
80304200:	0a000005 	beq	8030421c <number+0x2cc>
80304204:	e59d300c 	ldr	r3, [sp, #12]
80304208:	e5dd2067 	ldrb	r2, [sp, #103]	; 0x67
8030420c:	e5c32000 	strb	r2, [r3]
80304210:	e59d300c 	ldr	r3, [sp, #12]
80304214:	e2833001 	add	r3, r3, #1
80304218:	e58d300c 	str	r3, [sp, #12]
8030421c:	e59d3074 	ldr	r3, [sp, #116]	; 0x74
80304220:	e2033020 	and	r3, r3, #32
80304224:	e3530000 	cmp	r3, #0
80304228:	0a000019 	beq	80304294 <number+0x344>
8030422c:	e59d3004 	ldr	r3, [sp, #4]
80304230:	e3530008 	cmp	r3, #8
80304234:	1a000006 	bne	80304254 <number+0x304>
80304238:	e59d300c 	ldr	r3, [sp, #12]
8030423c:	e3a02030 	mov	r2, #48	; 0x30
80304240:	e5c32000 	strb	r2, [r3]
80304244:	e59d300c 	ldr	r3, [sp, #12]
80304248:	e2833001 	add	r3, r3, #1
8030424c:	e58d300c 	str	r3, [sp, #12]
80304250:	ea00000f 	b	80304294 <number+0x344>
80304254:	e59d3004 	ldr	r3, [sp, #4]
80304258:	e3530010 	cmp	r3, #16
8030425c:	1a00000c 	bne	80304294 <number+0x344>
80304260:	e59d300c 	ldr	r3, [sp, #12]
80304264:	e3a02030 	mov	r2, #48	; 0x30
80304268:	e5c32000 	strb	r2, [r3]
8030426c:	e59d300c 	ldr	r3, [sp, #12]
80304270:	e2833001 	add	r3, r3, #1
80304274:	e58d300c 	str	r3, [sp, #12]
80304278:	e59d3060 	ldr	r3, [sp, #96]	; 0x60
8030427c:	e5d32021 	ldrb	r2, [r3, #33]	; 0x21
80304280:	e59d300c 	ldr	r3, [sp, #12]
80304284:	e5c32000 	strb	r2, [r3]
80304288:	e59d300c 	ldr	r3, [sp, #12]
8030428c:	e2833001 	add	r3, r3, #1
80304290:	e58d300c 	str	r3, [sp, #12]
80304294:	e59d3074 	ldr	r3, [sp, #116]	; 0x74
80304298:	e2033010 	and	r3, r3, #16
8030429c:	e3530000 	cmp	r3, #0
803042a0:	1a000018 	bne	80304308 <number+0x3b8>
803042a4:	ea000005 	b	803042c0 <number+0x370>
803042a8:	e59d300c 	ldr	r3, [sp, #12]
803042ac:	e5dd205b 	ldrb	r2, [sp, #91]	; 0x5b
803042b0:	e5c32000 	strb	r2, [r3]
803042b4:	e59d300c 	ldr	r3, [sp, #12]
803042b8:	e2833001 	add	r3, r3, #1
803042bc:	e58d300c 	str	r3, [sp, #12]
803042c0:	e59d3000 	ldr	r3, [sp]
803042c4:	e3530000 	cmp	r3, #0
803042c8:	d3a03000 	movle	r3, #0
803042cc:	c3a03001 	movgt	r3, #1
803042d0:	e6ef3073 	uxtb	r3, r3
803042d4:	e59d2000 	ldr	r2, [sp]
803042d8:	e2422001 	sub	r2, r2, #1
803042dc:	e58d2000 	str	r2, [sp]
803042e0:	e3530000 	cmp	r3, #0
803042e4:	1affffef 	bne	803042a8 <number+0x358>
803042e8:	ea000006 	b	80304308 <number+0x3b8>
803042ec:	e59d300c 	ldr	r3, [sp, #12]
803042f0:	e3a02030 	mov	r2, #48	; 0x30
803042f4:	e5c32000 	strb	r2, [r3]
803042f8:	e59d300c 	ldr	r3, [sp, #12]
803042fc:	e2833001 	add	r3, r3, #1
80304300:	e58d300c 	str	r3, [sp, #12]
80304304:	ea000000 	b	8030430c <number+0x3bc>
80304308:	e1a00000 	nop			; (mov r0, r0)
8030430c:	e59d2070 	ldr	r2, [sp, #112]	; 0x70
80304310:	e59d305c 	ldr	r3, [sp, #92]	; 0x5c
80304314:	e1520003 	cmp	r2, r3
80304318:	d3a03000 	movle	r3, #0
8030431c:	c3a03001 	movgt	r3, #1
80304320:	e6ef3073 	uxtb	r3, r3
80304324:	e59d2070 	ldr	r2, [sp, #112]	; 0x70
80304328:	e2422001 	sub	r2, r2, #1
8030432c:	e58d2070 	str	r2, [sp, #112]	; 0x70
80304330:	e3530000 	cmp	r3, #0
80304334:	1affffec 	bne	803042ec <number+0x39c>
80304338:	ea00000a 	b	80304368 <number+0x418>
8030433c:	e3e03057 	mvn	r3, #87	; 0x57
80304340:	e59d205c 	ldr	r2, [sp, #92]	; 0x5c
80304344:	e28d1068 	add	r1, sp, #104	; 0x68
80304348:	e0812002 	add	r2, r1, r2
8030434c:	e0823003 	add	r3, r2, r3
80304350:	e5d32000 	ldrb	r2, [r3]
80304354:	e59d300c 	ldr	r3, [sp, #12]
80304358:	e5c32000 	strb	r2, [r3]
8030435c:	e59d300c 	ldr	r3, [sp, #12]
80304360:	e2833001 	add	r3, r3, #1
80304364:	e58d300c 	str	r3, [sp, #12]
80304368:	e59d305c 	ldr	r3, [sp, #92]	; 0x5c
8030436c:	e3530000 	cmp	r3, #0
80304370:	d3a03000 	movle	r3, #0
80304374:	c3a03001 	movgt	r3, #1
80304378:	e6ef3073 	uxtb	r3, r3
8030437c:	e59d205c 	ldr	r2, [sp, #92]	; 0x5c
80304380:	e2422001 	sub	r2, r2, #1
80304384:	e58d205c 	str	r2, [sp, #92]	; 0x5c
80304388:	e3530000 	cmp	r3, #0
8030438c:	1affffea 	bne	8030433c <number+0x3ec>
80304390:	ea000005 	b	803043ac <number+0x45c>
80304394:	e59d300c 	ldr	r3, [sp, #12]
80304398:	e3a02020 	mov	r2, #32
8030439c:	e5c32000 	strb	r2, [r3]
803043a0:	e59d300c 	ldr	r3, [sp, #12]
803043a4:	e2833001 	add	r3, r3, #1
803043a8:	e58d300c 	str	r3, [sp, #12]
803043ac:	e59d3000 	ldr	r3, [sp]
803043b0:	e3530000 	cmp	r3, #0
803043b4:	d3a03000 	movle	r3, #0
803043b8:	c3a03001 	movgt	r3, #1
803043bc:	e6ef3073 	uxtb	r3, r3
803043c0:	e59d2000 	ldr	r2, [sp]
803043c4:	e2422001 	sub	r2, r2, #1
803043c8:	e58d2000 	str	r2, [sp]
803043cc:	e3530000 	cmp	r3, #0
803043d0:	1affffef 	bne	80304394 <number+0x444>
803043d4:	e59d300c 	ldr	r3, [sp, #12]
803043d8:	e1a00003 	mov	r0, r3
803043dc:	e28dd06c 	add	sp, sp, #108	; 0x6c
803043e0:	e8bd8000 	ldmfd	sp!, {pc}

803043e4 <vsprintf_1>:
803043e4:	e52de004 	push	{lr}		; (str lr, [sp, #-4]!)
803043e8:	e24dd04c 	sub	sp, sp, #76	; 0x4c
803043ec:	e58d0014 	str	r0, [sp, #20]
803043f0:	e58d1010 	str	r1, [sp, #16]
803043f4:	e58d200c 	str	r2, [sp, #12]
803043f8:	e59d3014 	ldr	r3, [sp, #20]
803043fc:	e58d3038 	str	r3, [sp, #56]	; 0x38
80304400:	ea000200 	b	80304c08 <vsprintf_1+0x824>
80304404:	e59d3010 	ldr	r3, [sp, #16]
80304408:	e5d33000 	ldrb	r3, [r3]
8030440c:	e3530025 	cmp	r3, #37	; 0x25
80304410:	0a000007 	beq	80304434 <vsprintf_1+0x50>
80304414:	e59d3010 	ldr	r3, [sp, #16]
80304418:	e5d32000 	ldrb	r2, [r3]
8030441c:	e59d3038 	ldr	r3, [sp, #56]	; 0x38
80304420:	e5c32000 	strb	r2, [r3]
80304424:	e59d3038 	ldr	r3, [sp, #56]	; 0x38
80304428:	e2833001 	add	r3, r3, #1
8030442c:	e58d3038 	str	r3, [sp, #56]	; 0x38
80304430:	ea0001f1 	b	80304bfc <vsprintf_1+0x818>
80304434:	e3a03000 	mov	r3, #0
80304438:	e58d3030 	str	r3, [sp, #48]	; 0x30
8030443c:	e59d3010 	ldr	r3, [sp, #16]
80304440:	e2833001 	add	r3, r3, #1
80304444:	e58d3010 	str	r3, [sp, #16]
80304448:	e59d3010 	ldr	r3, [sp, #16]
8030444c:	e5d33000 	ldrb	r3, [r3]
80304450:	e2433020 	sub	r3, r3, #32
80304454:	e3530010 	cmp	r3, #16
80304458:	979ff103 	ldrls	pc, [pc, r3, lsl #2]
8030445c:	ea000024 	b	803044f4 <vsprintf_1+0x110>
80304460:	803044c4 	.word	0x803044c4
80304464:	803044f4 	.word	0x803044f4
80304468:	803044f4 	.word	0x803044f4
8030446c:	803044d4 	.word	0x803044d4
80304470:	803044f4 	.word	0x803044f4
80304474:	803044f4 	.word	0x803044f4
80304478:	803044f4 	.word	0x803044f4
8030447c:	803044f4 	.word	0x803044f4
80304480:	803044f4 	.word	0x803044f4
80304484:	803044f4 	.word	0x803044f4
80304488:	803044f4 	.word	0x803044f4
8030448c:	803044b4 	.word	0x803044b4
80304490:	803044f4 	.word	0x803044f4
80304494:	803044a4 	.word	0x803044a4
80304498:	803044f4 	.word	0x803044f4
8030449c:	803044f4 	.word	0x803044f4
803044a0:	803044e4 	.word	0x803044e4
803044a4:	e59d3030 	ldr	r3, [sp, #48]	; 0x30
803044a8:	e3833010 	orr	r3, r3, #16
803044ac:	e58d3030 	str	r3, [sp, #48]	; 0x30
803044b0:	eaffffe1 	b	8030443c <vsprintf_1+0x58>
803044b4:	e59d3030 	ldr	r3, [sp, #48]	; 0x30
803044b8:	e3833004 	orr	r3, r3, #4
803044bc:	e58d3030 	str	r3, [sp, #48]	; 0x30
803044c0:	eaffffdd 	b	8030443c <vsprintf_1+0x58>
803044c4:	e59d3030 	ldr	r3, [sp, #48]	; 0x30
803044c8:	e3833008 	orr	r3, r3, #8
803044cc:	e58d3030 	str	r3, [sp, #48]	; 0x30
803044d0:	eaffffd9 	b	8030443c <vsprintf_1+0x58>
803044d4:	e59d3030 	ldr	r3, [sp, #48]	; 0x30
803044d8:	e3833020 	orr	r3, r3, #32
803044dc:	e58d3030 	str	r3, [sp, #48]	; 0x30
803044e0:	eaffffd5 	b	8030443c <vsprintf_1+0x58>
803044e4:	e59d3030 	ldr	r3, [sp, #48]	; 0x30
803044e8:	e3833001 	orr	r3, r3, #1
803044ec:	e58d3030 	str	r3, [sp, #48]	; 0x30
803044f0:	eaffffd1 	b	8030443c <vsprintf_1+0x58>
803044f4:	e3e03000 	mvn	r3, #0
803044f8:	e58d302c 	str	r3, [sp, #44]	; 0x2c
803044fc:	e59d3010 	ldr	r3, [sp, #16]
80304500:	e5d33000 	ldrb	r3, [r3]
80304504:	e353002f 	cmp	r3, #47	; 0x2f
80304508:	9a000008 	bls	80304530 <vsprintf_1+0x14c>
8030450c:	e59d3010 	ldr	r3, [sp, #16]
80304510:	e5d33000 	ldrb	r3, [r3]
80304514:	e3530039 	cmp	r3, #57	; 0x39
80304518:	8a000004 	bhi	80304530 <vsprintf_1+0x14c>
8030451c:	e28d3010 	add	r3, sp, #16
80304520:	e1a00003 	mov	r0, r3
80304524:	ebfffe67 	bl	80303ec8 <skip_atoi>
80304528:	e58d002c 	str	r0, [sp, #44]	; 0x2c
8030452c:	ea000014 	b	80304584 <vsprintf_1+0x1a0>
80304530:	e59d3010 	ldr	r3, [sp, #16]
80304534:	e5d33000 	ldrb	r3, [r3]
80304538:	e353002a 	cmp	r3, #42	; 0x2a
8030453c:	1a000010 	bne	80304584 <vsprintf_1+0x1a0>
80304540:	e59d3010 	ldr	r3, [sp, #16]
80304544:	e2833001 	add	r3, r3, #1
80304548:	e58d3010 	str	r3, [sp, #16]
8030454c:	e59d300c 	ldr	r3, [sp, #12]
80304550:	e2832004 	add	r2, r3, #4
80304554:	e58d200c 	str	r2, [sp, #12]
80304558:	e5933000 	ldr	r3, [r3]
8030455c:	e58d302c 	str	r3, [sp, #44]	; 0x2c
80304560:	e59d302c 	ldr	r3, [sp, #44]	; 0x2c
80304564:	e3530000 	cmp	r3, #0
80304568:	aa000005 	bge	80304584 <vsprintf_1+0x1a0>
8030456c:	e59d302c 	ldr	r3, [sp, #44]	; 0x2c
80304570:	e2633000 	rsb	r3, r3, #0
80304574:	e58d302c 	str	r3, [sp, #44]	; 0x2c
80304578:	e59d3030 	ldr	r3, [sp, #48]	; 0x30
8030457c:	e3833010 	orr	r3, r3, #16
80304580:	e58d3030 	str	r3, [sp, #48]	; 0x30
80304584:	e3e03000 	mvn	r3, #0
80304588:	e58d3028 	str	r3, [sp, #40]	; 0x28
8030458c:	e59d3010 	ldr	r3, [sp, #16]
80304590:	e5d33000 	ldrb	r3, [r3]
80304594:	e353002e 	cmp	r3, #46	; 0x2e
80304598:	1a000020 	bne	80304620 <vsprintf_1+0x23c>
8030459c:	e59d3010 	ldr	r3, [sp, #16]
803045a0:	e2833001 	add	r3, r3, #1
803045a4:	e58d3010 	str	r3, [sp, #16]
803045a8:	e59d3010 	ldr	r3, [sp, #16]
803045ac:	e5d33000 	ldrb	r3, [r3]
803045b0:	e353002f 	cmp	r3, #47	; 0x2f
803045b4:	9a000008 	bls	803045dc <vsprintf_1+0x1f8>
803045b8:	e59d3010 	ldr	r3, [sp, #16]
803045bc:	e5d33000 	ldrb	r3, [r3]
803045c0:	e3530039 	cmp	r3, #57	; 0x39
803045c4:	8a000004 	bhi	803045dc <vsprintf_1+0x1f8>
803045c8:	e28d3010 	add	r3, sp, #16
803045cc:	e1a00003 	mov	r0, r3
803045d0:	ebfffe3c 	bl	80303ec8 <skip_atoi>
803045d4:	e58d0028 	str	r0, [sp, #40]	; 0x28
803045d8:	ea00000b 	b	8030460c <vsprintf_1+0x228>
803045dc:	e59d3010 	ldr	r3, [sp, #16]
803045e0:	e5d33000 	ldrb	r3, [r3]
803045e4:	e353002a 	cmp	r3, #42	; 0x2a
803045e8:	1a000007 	bne	8030460c <vsprintf_1+0x228>
803045ec:	e59d3010 	ldr	r3, [sp, #16]
803045f0:	e2833001 	add	r3, r3, #1
803045f4:	e58d3010 	str	r3, [sp, #16]
803045f8:	e59d300c 	ldr	r3, [sp, #12]
803045fc:	e2832004 	add	r2, r3, #4
80304600:	e58d200c 	str	r2, [sp, #12]
80304604:	e5933000 	ldr	r3, [r3]
80304608:	e58d3028 	str	r3, [sp, #40]	; 0x28
8030460c:	e59d3028 	ldr	r3, [sp, #40]	; 0x28
80304610:	e3530000 	cmp	r3, #0
80304614:	aa000001 	bge	80304620 <vsprintf_1+0x23c>
80304618:	e3a03000 	mov	r3, #0
8030461c:	e58d3028 	str	r3, [sp, #40]	; 0x28
80304620:	e3e03000 	mvn	r3, #0
80304624:	e58d3024 	str	r3, [sp, #36]	; 0x24
80304628:	e59d3010 	ldr	r3, [sp, #16]
8030462c:	e5d33000 	ldrb	r3, [r3]
80304630:	e3530068 	cmp	r3, #104	; 0x68
80304634:	0a000007 	beq	80304658 <vsprintf_1+0x274>
80304638:	e59d3010 	ldr	r3, [sp, #16]
8030463c:	e5d33000 	ldrb	r3, [r3]
80304640:	e353006c 	cmp	r3, #108	; 0x6c
80304644:	0a000003 	beq	80304658 <vsprintf_1+0x274>
80304648:	e59d3010 	ldr	r3, [sp, #16]
8030464c:	e5d33000 	ldrb	r3, [r3]
80304650:	e353004c 	cmp	r3, #76	; 0x4c
80304654:	1a000005 	bne	80304670 <vsprintf_1+0x28c>
80304658:	e59d3010 	ldr	r3, [sp, #16]
8030465c:	e5d33000 	ldrb	r3, [r3]
80304660:	e58d3024 	str	r3, [sp, #36]	; 0x24
80304664:	e59d3010 	ldr	r3, [sp, #16]
80304668:	e2833001 	add	r3, r3, #1
8030466c:	e58d3010 	str	r3, [sp, #16]
80304670:	e3a0300a 	mov	r3, #10
80304674:	e58d303c 	str	r3, [sp, #60]	; 0x3c
80304678:	e59d3010 	ldr	r3, [sp, #16]
8030467c:	e5d33000 	ldrb	r3, [r3]
80304680:	e2433025 	sub	r3, r3, #37	; 0x25
80304684:	e3530053 	cmp	r3, #83	; 0x53
80304688:	979ff103 	ldrls	pc, [pc, r3, lsl #2]
8030468c:	ea00010e 	b	80304acc <vsprintf_1+0x6e8>
80304690:	80304a7c 	.word	0x80304a7c
80304694:	80304acc 	.word	0x80304acc
80304698:	80304acc 	.word	0x80304acc
8030469c:	80304acc 	.word	0x80304acc
803046a0:	80304acc 	.word	0x80304acc
803046a4:	80304acc 	.word	0x80304acc
803046a8:	80304acc 	.word	0x80304acc
803046ac:	80304acc 	.word	0x80304acc
803046b0:	80304acc 	.word	0x80304acc
803046b4:	80304acc 	.word	0x80304acc
803046b8:	80304acc 	.word	0x80304acc
803046bc:	80304acc 	.word	0x80304acc
803046c0:	80304acc 	.word	0x80304acc
803046c4:	80304acc 	.word	0x80304acc
803046c8:	80304acc 	.word	0x80304acc
803046cc:	80304acc 	.word	0x80304acc
803046d0:	80304acc 	.word	0x80304acc
803046d4:	80304acc 	.word	0x80304acc
803046d8:	80304acc 	.word	0x80304acc
803046dc:	80304acc 	.word	0x80304acc
803046e0:	80304acc 	.word	0x80304acc
803046e4:	80304acc 	.word	0x80304acc
803046e8:	80304acc 	.word	0x80304acc
803046ec:	80304acc 	.word	0x80304acc
803046f0:	80304acc 	.word	0x80304acc
803046f4:	80304acc 	.word	0x80304acc
803046f8:	80304acc 	.word	0x80304acc
803046fc:	80304acc 	.word	0x80304acc
80304700:	80304acc 	.word	0x80304acc
80304704:	80304acc 	.word	0x80304acc
80304708:	80304acc 	.word	0x80304acc
8030470c:	80304acc 	.word	0x80304acc
80304710:	80304acc 	.word	0x80304acc
80304714:	80304acc 	.word	0x80304acc
80304718:	80304acc 	.word	0x80304acc
8030471c:	80304acc 	.word	0x80304acc
80304720:	80304acc 	.word	0x80304acc
80304724:	80304acc 	.word	0x80304acc
80304728:	80304acc 	.word	0x80304acc
8030472c:	80304acc 	.word	0x80304acc
80304730:	80304acc 	.word	0x80304acc
80304734:	80304acc 	.word	0x80304acc
80304738:	80304acc 	.word	0x80304acc
8030473c:	80304acc 	.word	0x80304acc
80304740:	80304acc 	.word	0x80304acc
80304744:	80304acc 	.word	0x80304acc
80304748:	80304acc 	.word	0x80304acc
8030474c:	80304acc 	.word	0x80304acc
80304750:	80304acc 	.word	0x80304acc
80304754:	80304acc 	.word	0x80304acc
80304758:	80304acc 	.word	0x80304acc
8030475c:	80304aa4 	.word	0x80304aa4
80304760:	80304acc 	.word	0x80304acc
80304764:	80304acc 	.word	0x80304acc
80304768:	80304acc 	.word	0x80304acc
8030476c:	80304acc 	.word	0x80304acc
80304770:	80304acc 	.word	0x80304acc
80304774:	80304acc 	.word	0x80304acc
80304778:	80304acc 	.word	0x80304acc
8030477c:	80304acc 	.word	0x80304acc
80304780:	80304acc 	.word	0x80304acc
80304784:	80304acc 	.word	0x80304acc
80304788:	803047e0 	.word	0x803047e0
8030478c:	80304abc 	.word	0x80304abc
80304790:	80304acc 	.word	0x80304acc
80304794:	80304acc 	.word	0x80304acc
80304798:	80304acc 	.word	0x80304acc
8030479c:	80304acc 	.word	0x80304acc
803047a0:	80304abc 	.word	0x80304abc
803047a4:	80304acc 	.word	0x80304acc
803047a8:	80304acc 	.word	0x80304acc
803047ac:	80304acc 	.word	0x80304acc
803047b0:	80304acc 	.word	0x80304acc
803047b4:	80304a18 	.word	0x80304a18
803047b8:	80304a98 	.word	0x80304a98
803047bc:	803049bc 	.word	0x803049bc
803047c0:	80304acc 	.word	0x80304acc
803047c4:	80304acc 	.word	0x80304acc
803047c8:	80304884 	.word	0x80304884
803047cc:	80304acc 	.word	0x80304acc
803047d0:	80304b24 	.word	0x80304b24
803047d4:	80304acc 	.word	0x80304acc
803047d8:	80304acc 	.word	0x80304acc
803047dc:	80304ab0 	.word	0x80304ab0
803047e0:	e59d3030 	ldr	r3, [sp, #48]	; 0x30
803047e4:	e2033010 	and	r3, r3, #16
803047e8:	e3530000 	cmp	r3, #0
803047ec:	1a00000c 	bne	80304824 <vsprintf_1+0x440>
803047f0:	ea000005 	b	8030480c <vsprintf_1+0x428>
803047f4:	e59d3038 	ldr	r3, [sp, #56]	; 0x38
803047f8:	e3a02020 	mov	r2, #32
803047fc:	e5c32000 	strb	r2, [r3]
80304800:	e59d3038 	ldr	r3, [sp, #56]	; 0x38
80304804:	e2833001 	add	r3, r3, #1
80304808:	e58d3038 	str	r3, [sp, #56]	; 0x38
8030480c:	e59d302c 	ldr	r3, [sp, #44]	; 0x2c
80304810:	e2433001 	sub	r3, r3, #1
80304814:	e58d302c 	str	r3, [sp, #44]	; 0x2c
80304818:	e59d302c 	ldr	r3, [sp, #44]	; 0x2c
8030481c:	e3530000 	cmp	r3, #0
80304820:	cafffff3 	bgt	803047f4 <vsprintf_1+0x410>
80304824:	e59d300c 	ldr	r3, [sp, #12]
80304828:	e2832004 	add	r2, r3, #4
8030482c:	e58d200c 	str	r2, [sp, #12]
80304830:	e5933000 	ldr	r3, [r3]
80304834:	e6ef2073 	uxtb	r2, r3
80304838:	e59d3038 	ldr	r3, [sp, #56]	; 0x38
8030483c:	e5c32000 	strb	r2, [r3]
80304840:	e59d3038 	ldr	r3, [sp, #56]	; 0x38
80304844:	e2833001 	add	r3, r3, #1
80304848:	e58d3038 	str	r3, [sp, #56]	; 0x38
8030484c:	ea000005 	b	80304868 <vsprintf_1+0x484>
80304850:	e59d3038 	ldr	r3, [sp, #56]	; 0x38
80304854:	e3a02020 	mov	r2, #32
80304858:	e5c32000 	strb	r2, [r3]
8030485c:	e59d3038 	ldr	r3, [sp, #56]	; 0x38
80304860:	e2833001 	add	r3, r3, #1
80304864:	e58d3038 	str	r3, [sp, #56]	; 0x38
80304868:	e59d302c 	ldr	r3, [sp, #44]	; 0x2c
8030486c:	e2433001 	sub	r3, r3, #1
80304870:	e58d302c 	str	r3, [sp, #44]	; 0x2c
80304874:	e59d302c 	ldr	r3, [sp, #44]	; 0x2c
80304878:	e3530000 	cmp	r3, #0
8030487c:	cafffff3 	bgt	80304850 <vsprintf_1+0x46c>
80304880:	ea0000dd 	b	80304bfc <vsprintf_1+0x818>
80304884:	e59d300c 	ldr	r3, [sp, #12]
80304888:	e2832004 	add	r2, r3, #4
8030488c:	e58d200c 	str	r2, [sp, #12]
80304890:	e5933000 	ldr	r3, [r3]
80304894:	e58d3034 	str	r3, [sp, #52]	; 0x34
80304898:	e59d3034 	ldr	r3, [sp, #52]	; 0x34
8030489c:	e3530000 	cmp	r3, #0
803048a0:	1a000002 	bne	803048b0 <vsprintf_1+0x4cc>
803048a4:	e30539a4 	movw	r3, #22948	; 0x59a4
803048a8:	e3483030 	movt	r3, #32816	; 0x8030
803048ac:	e58d3034 	str	r3, [sp, #52]	; 0x34
803048b0:	e59d3028 	ldr	r3, [sp, #40]	; 0x28
803048b4:	e59d0034 	ldr	r0, [sp, #52]	; 0x34
803048b8:	e1a01003 	mov	r1, r3
803048bc:	ebfffd64 	bl	80303e54 <strnlen>
803048c0:	e1a03000 	mov	r3, r0
803048c4:	e58d3020 	str	r3, [sp, #32]
803048c8:	e59d3030 	ldr	r3, [sp, #48]	; 0x30
803048cc:	e2033010 	and	r3, r3, #16
803048d0:	e3530000 	cmp	r3, #0
803048d4:	1a000011 	bne	80304920 <vsprintf_1+0x53c>
803048d8:	ea000005 	b	803048f4 <vsprintf_1+0x510>
803048dc:	e59d3038 	ldr	r3, [sp, #56]	; 0x38
803048e0:	e3a02020 	mov	r2, #32
803048e4:	e5c32000 	strb	r2, [r3]
803048e8:	e59d3038 	ldr	r3, [sp, #56]	; 0x38
803048ec:	e2833001 	add	r3, r3, #1
803048f0:	e58d3038 	str	r3, [sp, #56]	; 0x38
803048f4:	e59d202c 	ldr	r2, [sp, #44]	; 0x2c
803048f8:	e59d3020 	ldr	r3, [sp, #32]
803048fc:	e1520003 	cmp	r2, r3
80304900:	d3a03000 	movle	r3, #0
80304904:	c3a03001 	movgt	r3, #1
80304908:	e6ef3073 	uxtb	r3, r3
8030490c:	e59d202c 	ldr	r2, [sp, #44]	; 0x2c
80304910:	e2422001 	sub	r2, r2, #1
80304914:	e58d202c 	str	r2, [sp, #44]	; 0x2c
80304918:	e3530000 	cmp	r3, #0
8030491c:	1affffee 	bne	803048dc <vsprintf_1+0x4f8>
80304920:	e3a03000 	mov	r3, #0
80304924:	e58d3040 	str	r3, [sp, #64]	; 0x40
80304928:	ea00000c 	b	80304960 <vsprintf_1+0x57c>
8030492c:	e59d3034 	ldr	r3, [sp, #52]	; 0x34
80304930:	e5d32000 	ldrb	r2, [r3]
80304934:	e59d3038 	ldr	r3, [sp, #56]	; 0x38
80304938:	e5c32000 	strb	r2, [r3]
8030493c:	e59d3038 	ldr	r3, [sp, #56]	; 0x38
80304940:	e2833001 	add	r3, r3, #1
80304944:	e58d3038 	str	r3, [sp, #56]	; 0x38
80304948:	e59d3034 	ldr	r3, [sp, #52]	; 0x34
8030494c:	e2833001 	add	r3, r3, #1
80304950:	e58d3034 	str	r3, [sp, #52]	; 0x34
80304954:	e59d3040 	ldr	r3, [sp, #64]	; 0x40
80304958:	e2833001 	add	r3, r3, #1
8030495c:	e58d3040 	str	r3, [sp, #64]	; 0x40
80304960:	e59d2040 	ldr	r2, [sp, #64]	; 0x40
80304964:	e59d3020 	ldr	r3, [sp, #32]
80304968:	e1520003 	cmp	r2, r3
8030496c:	baffffee 	blt	8030492c <vsprintf_1+0x548>
80304970:	ea000005 	b	8030498c <vsprintf_1+0x5a8>
80304974:	e59d3038 	ldr	r3, [sp, #56]	; 0x38
80304978:	e3a02020 	mov	r2, #32
8030497c:	e5c32000 	strb	r2, [r3]
80304980:	e59d3038 	ldr	r3, [sp, #56]	; 0x38
80304984:	e2833001 	add	r3, r3, #1
80304988:	e58d3038 	str	r3, [sp, #56]	; 0x38
8030498c:	e59d202c 	ldr	r2, [sp, #44]	; 0x2c
80304990:	e59d3020 	ldr	r3, [sp, #32]
80304994:	e1520003 	cmp	r2, r3
80304998:	d3a03000 	movle	r3, #0
8030499c:	c3a03001 	movgt	r3, #1
803049a0:	e6ef3073 	uxtb	r3, r3
803049a4:	e59d202c 	ldr	r2, [sp, #44]	; 0x2c
803049a8:	e2422001 	sub	r2, r2, #1
803049ac:	e58d202c 	str	r2, [sp, #44]	; 0x2c
803049b0:	e3530000 	cmp	r3, #0
803049b4:	1affffee 	bne	80304974 <vsprintf_1+0x590>
803049b8:	ea00008f 	b	80304bfc <vsprintf_1+0x818>
803049bc:	e59d302c 	ldr	r3, [sp, #44]	; 0x2c
803049c0:	e3730001 	cmn	r3, #1
803049c4:	1a000004 	bne	803049dc <vsprintf_1+0x5f8>
803049c8:	e3a03008 	mov	r3, #8
803049cc:	e58d302c 	str	r3, [sp, #44]	; 0x2c
803049d0:	e59d3030 	ldr	r3, [sp, #48]	; 0x30
803049d4:	e3833001 	orr	r3, r3, #1
803049d8:	e58d3030 	str	r3, [sp, #48]	; 0x30
803049dc:	e59d300c 	ldr	r3, [sp, #12]
803049e0:	e2832004 	add	r2, r3, #4
803049e4:	e58d200c 	str	r2, [sp, #12]
803049e8:	e5933000 	ldr	r3, [r3]
803049ec:	e59d2028 	ldr	r2, [sp, #40]	; 0x28
803049f0:	e58d2000 	str	r2, [sp]
803049f4:	e59d2030 	ldr	r2, [sp, #48]	; 0x30
803049f8:	e58d2004 	str	r2, [sp, #4]
803049fc:	e59d0038 	ldr	r0, [sp, #56]	; 0x38
80304a00:	e1a01003 	mov	r1, r3
80304a04:	e3a02010 	mov	r2, #16
80304a08:	e59d302c 	ldr	r3, [sp, #44]	; 0x2c
80304a0c:	ebfffd4f 	bl	80303f50 <number>
80304a10:	e58d0038 	str	r0, [sp, #56]	; 0x38
80304a14:	ea000078 	b	80304bfc <vsprintf_1+0x818>
80304a18:	e59d3024 	ldr	r3, [sp, #36]	; 0x24
80304a1c:	e353006c 	cmp	r3, #108	; 0x6c
80304a20:	1a00000a 	bne	80304a50 <vsprintf_1+0x66c>
80304a24:	e59d300c 	ldr	r3, [sp, #12]
80304a28:	e2832004 	add	r2, r3, #4
80304a2c:	e58d200c 	str	r2, [sp, #12]
80304a30:	e5933000 	ldr	r3, [r3]
80304a34:	e58d301c 	str	r3, [sp, #28]
80304a38:	e59d2038 	ldr	r2, [sp, #56]	; 0x38
80304a3c:	e59d3014 	ldr	r3, [sp, #20]
80304a40:	e0632002 	rsb	r2, r3, r2
80304a44:	e59d301c 	ldr	r3, [sp, #28]
80304a48:	e5832000 	str	r2, [r3]
80304a4c:	ea00006a 	b	80304bfc <vsprintf_1+0x818>
80304a50:	e59d300c 	ldr	r3, [sp, #12]
80304a54:	e2832004 	add	r2, r3, #4
80304a58:	e58d200c 	str	r2, [sp, #12]
80304a5c:	e5933000 	ldr	r3, [r3]
80304a60:	e58d3018 	str	r3, [sp, #24]
80304a64:	e59d2038 	ldr	r2, [sp, #56]	; 0x38
80304a68:	e59d3014 	ldr	r3, [sp, #20]
80304a6c:	e0632002 	rsb	r2, r3, r2
80304a70:	e59d3018 	ldr	r3, [sp, #24]
80304a74:	e5832000 	str	r2, [r3]
80304a78:	ea00005f 	b	80304bfc <vsprintf_1+0x818>
80304a7c:	e59d3038 	ldr	r3, [sp, #56]	; 0x38
80304a80:	e3a02025 	mov	r2, #37	; 0x25
80304a84:	e5c32000 	strb	r2, [r3]
80304a88:	e59d3038 	ldr	r3, [sp, #56]	; 0x38
80304a8c:	e2833001 	add	r3, r3, #1
80304a90:	e58d3038 	str	r3, [sp, #56]	; 0x38
80304a94:	ea000058 	b	80304bfc <vsprintf_1+0x818>
80304a98:	e3a03008 	mov	r3, #8
80304a9c:	e58d303c 	str	r3, [sp, #60]	; 0x3c
80304aa0:	ea000020 	b	80304b28 <vsprintf_1+0x744>
80304aa4:	e59d3030 	ldr	r3, [sp, #48]	; 0x30
80304aa8:	e3833040 	orr	r3, r3, #64	; 0x40
80304aac:	e58d3030 	str	r3, [sp, #48]	; 0x30
80304ab0:	e3a03010 	mov	r3, #16
80304ab4:	e58d303c 	str	r3, [sp, #60]	; 0x3c
80304ab8:	ea00001a 	b	80304b28 <vsprintf_1+0x744>
80304abc:	e59d3030 	ldr	r3, [sp, #48]	; 0x30
80304ac0:	e3833002 	orr	r3, r3, #2
80304ac4:	e58d3030 	str	r3, [sp, #48]	; 0x30
80304ac8:	ea000015 	b	80304b24 <vsprintf_1+0x740>
80304acc:	e59d3038 	ldr	r3, [sp, #56]	; 0x38
80304ad0:	e3a02025 	mov	r2, #37	; 0x25
80304ad4:	e5c32000 	strb	r2, [r3]
80304ad8:	e59d3038 	ldr	r3, [sp, #56]	; 0x38
80304adc:	e2833001 	add	r3, r3, #1
80304ae0:	e58d3038 	str	r3, [sp, #56]	; 0x38
80304ae4:	e59d3010 	ldr	r3, [sp, #16]
80304ae8:	e5d33000 	ldrb	r3, [r3]
80304aec:	e3530000 	cmp	r3, #0
80304af0:	0a000007 	beq	80304b14 <vsprintf_1+0x730>
80304af4:	e59d3010 	ldr	r3, [sp, #16]
80304af8:	e5d32000 	ldrb	r2, [r3]
80304afc:	e59d3038 	ldr	r3, [sp, #56]	; 0x38
80304b00:	e5c32000 	strb	r2, [r3]
80304b04:	e59d3038 	ldr	r3, [sp, #56]	; 0x38
80304b08:	e2833001 	add	r3, r3, #1
80304b0c:	e58d3038 	str	r3, [sp, #56]	; 0x38
80304b10:	ea000039 	b	80304bfc <vsprintf_1+0x818>
80304b14:	e59d3010 	ldr	r3, [sp, #16]
80304b18:	e2433001 	sub	r3, r3, #1
80304b1c:	e58d3010 	str	r3, [sp, #16]
80304b20:	ea000035 	b	80304bfc <vsprintf_1+0x818>
80304b24:	e1a00000 	nop			; (mov r0, r0)
80304b28:	e59d3024 	ldr	r3, [sp, #36]	; 0x24
80304b2c:	e353006c 	cmp	r3, #108	; 0x6c
80304b30:	1a000005 	bne	80304b4c <vsprintf_1+0x768>
80304b34:	e59d300c 	ldr	r3, [sp, #12]
80304b38:	e2832004 	add	r2, r3, #4
80304b3c:	e58d200c 	str	r2, [sp, #12]
80304b40:	e5933000 	ldr	r3, [r3]
80304b44:	e58d3044 	str	r3, [sp, #68]	; 0x44
80304b48:	ea000020 	b	80304bd0 <vsprintf_1+0x7ec>
80304b4c:	e59d3024 	ldr	r3, [sp, #36]	; 0x24
80304b50:	e3530068 	cmp	r3, #104	; 0x68
80304b54:	1a00000e 	bne	80304b94 <vsprintf_1+0x7b0>
80304b58:	e59d300c 	ldr	r3, [sp, #12]
80304b5c:	e2832004 	add	r2, r3, #4
80304b60:	e58d200c 	str	r2, [sp, #12]
80304b64:	e5933000 	ldr	r3, [r3]
80304b68:	e6ff3073 	uxth	r3, r3
80304b6c:	e58d3044 	str	r3, [sp, #68]	; 0x44
80304b70:	e59d3030 	ldr	r3, [sp, #48]	; 0x30
80304b74:	e2033002 	and	r3, r3, #2
80304b78:	e3530000 	cmp	r3, #0
80304b7c:	0a000013 	beq	80304bd0 <vsprintf_1+0x7ec>
80304b80:	e59d3044 	ldr	r3, [sp, #68]	; 0x44
80304b84:	e6ff3073 	uxth	r3, r3
80304b88:	e6bf3073 	sxth	r3, r3
80304b8c:	e58d3044 	str	r3, [sp, #68]	; 0x44
80304b90:	ea00000e 	b	80304bd0 <vsprintf_1+0x7ec>
80304b94:	e59d3030 	ldr	r3, [sp, #48]	; 0x30
80304b98:	e2033002 	and	r3, r3, #2
80304b9c:	e3530000 	cmp	r3, #0
80304ba0:	0a000005 	beq	80304bbc <vsprintf_1+0x7d8>
80304ba4:	e59d300c 	ldr	r3, [sp, #12]
80304ba8:	e2832004 	add	r2, r3, #4
80304bac:	e58d200c 	str	r2, [sp, #12]
80304bb0:	e5933000 	ldr	r3, [r3]
80304bb4:	e58d3044 	str	r3, [sp, #68]	; 0x44
80304bb8:	ea000004 	b	80304bd0 <vsprintf_1+0x7ec>
80304bbc:	e59d300c 	ldr	r3, [sp, #12]
80304bc0:	e2832004 	add	r2, r3, #4
80304bc4:	e58d200c 	str	r2, [sp, #12]
80304bc8:	e5933000 	ldr	r3, [r3]
80304bcc:	e58d3044 	str	r3, [sp, #68]	; 0x44
80304bd0:	e59d3044 	ldr	r3, [sp, #68]	; 0x44
80304bd4:	e59d2028 	ldr	r2, [sp, #40]	; 0x28
80304bd8:	e58d2000 	str	r2, [sp]
80304bdc:	e59d2030 	ldr	r2, [sp, #48]	; 0x30
80304be0:	e58d2004 	str	r2, [sp, #4]
80304be4:	e59d0038 	ldr	r0, [sp, #56]	; 0x38
80304be8:	e1a01003 	mov	r1, r3
80304bec:	e59d203c 	ldr	r2, [sp, #60]	; 0x3c
80304bf0:	e59d302c 	ldr	r3, [sp, #44]	; 0x2c
80304bf4:	ebfffcd5 	bl	80303f50 <number>
80304bf8:	e58d0038 	str	r0, [sp, #56]	; 0x38
80304bfc:	e59d3010 	ldr	r3, [sp, #16]
80304c00:	e2833001 	add	r3, r3, #1
80304c04:	e58d3010 	str	r3, [sp, #16]
80304c08:	e59d3010 	ldr	r3, [sp, #16]
80304c0c:	e5d33000 	ldrb	r3, [r3]
80304c10:	e3530000 	cmp	r3, #0
80304c14:	1afffdfa 	bne	80304404 <vsprintf_1+0x20>
80304c18:	e59d3038 	ldr	r3, [sp, #56]	; 0x38
80304c1c:	e3a02000 	mov	r2, #0
80304c20:	e5c32000 	strb	r2, [r3]
80304c24:	e59d2038 	ldr	r2, [sp, #56]	; 0x38
80304c28:	e59d3014 	ldr	r3, [sp, #20]
80304c2c:	e0633002 	rsb	r3, r3, r2
80304c30:	e1a00003 	mov	r0, r3
80304c34:	e28dd04c 	add	sp, sp, #76	; 0x4c
80304c38:	e8bd8000 	ldmfd	sp!, {pc}

80304c3c <serial_printf>:
80304c3c:	e92d000f 	push	{r0, r1, r2, r3}
80304c40:	e52de004 	push	{lr}		; (str lr, [sp, #-4]!)
80304c44:	e24ddf43 	sub	sp, sp, #268	; 0x10c
80304c48:	e28d3f45 	add	r3, sp, #276	; 0x114
80304c4c:	e58d3100 	str	r3, [sp, #256]	; 0x100
80304c50:	e1a0300d 	mov	r3, sp
80304c54:	e1a00003 	mov	r0, r3
80304c58:	e59d1110 	ldr	r1, [sp, #272]	; 0x110
80304c5c:	e59d2100 	ldr	r2, [sp, #256]	; 0x100
80304c60:	ebfffddf 	bl	803043e4 <vsprintf_1>
80304c64:	e58d0104 	str	r0, [sp, #260]	; 0x104
80304c68:	e1a0300d 	mov	r3, sp
80304c6c:	e1a00003 	mov	r0, r3
80304c70:	ebfffbe2 	bl	80303c00 <serial_puts>
80304c74:	e28ddf43 	add	sp, sp, #268	; 0x10c
80304c78:	e49de004 	pop	{lr}		; (ldr lr, [sp], #4)
80304c7c:	e28dd010 	add	sp, sp, #16
80304c80:	e12fff1e 	bx	lr

80304c84 <memdump_32>:
80304c84:	e92d4ff0 	push	{r4, r5, r6, r7, r8, r9, sl, fp, lr}
80304c88:	e24dd06c 	sub	sp, sp, #108	; 0x6c
80304c8c:	e58d004c 	str	r0, [sp, #76]	; 0x4c
80304c90:	e58d1048 	str	r1, [sp, #72]	; 0x48
80304c94:	e59d3048 	ldr	r3, [sp, #72]	; 0x48
80304c98:	e283200f 	add	r2, r3, #15
80304c9c:	e3530000 	cmp	r3, #0
80304ca0:	b1a03002 	movlt	r3, r2
80304ca4:	e1a03243 	asr	r3, r3, #4
80304ca8:	e58d3060 	str	r3, [sp, #96]	; 0x60
80304cac:	e59d304c 	ldr	r3, [sp, #76]	; 0x4c
80304cb0:	e58d305c 	str	r3, [sp, #92]	; 0x5c
80304cb4:	e59d305c 	ldr	r3, [sp, #92]	; 0x5c
80304cb8:	e203300f 	and	r3, r3, #15
80304cbc:	e58d3058 	str	r3, [sp, #88]	; 0x58
80304cc0:	e59d205c 	ldr	r2, [sp, #92]	; 0x5c
80304cc4:	e59d3058 	ldr	r3, [sp, #88]	; 0x58
80304cc8:	e0633002 	rsb	r3, r3, r2
80304ccc:	e58d305c 	str	r3, [sp, #92]	; 0x5c
80304cd0:	e59d305c 	ldr	r3, [sp, #92]	; 0x5c
80304cd4:	e58d3054 	str	r3, [sp, #84]	; 0x54
80304cd8:	e59d304c 	ldr	r3, [sp, #76]	; 0x4c
80304cdc:	e30509ac 	movw	r0, #22956	; 0x59ac
80304ce0:	e3480030 	movt	r0, #32816	; 0x8030
80304ce4:	e1a01003 	mov	r1, r3
80304ce8:	e59d2048 	ldr	r2, [sp, #72]	; 0x48
80304cec:	e59d3058 	ldr	r3, [sp, #88]	; 0x58
80304cf0:	ebffffd1 	bl	80304c3c <serial_printf>
80304cf4:	e3a03000 	mov	r3, #0
80304cf8:	e58d3064 	str	r3, [sp, #100]	; 0x64
80304cfc:	ea00008d 	b	80304f38 <memdump_32+0x2b4>
80304d00:	e59d3064 	ldr	r3, [sp, #100]	; 0x64
80304d04:	e1a03203 	lsl	r3, r3, #4
80304d08:	e1a02003 	mov	r2, r3
80304d0c:	e59d305c 	ldr	r3, [sp, #92]	; 0x5c
80304d10:	e0827003 	add	r7, r2, r3
80304d14:	e59d3064 	ldr	r3, [sp, #100]	; 0x64
80304d18:	e1a03203 	lsl	r3, r3, #4
80304d1c:	e59d2054 	ldr	r2, [sp, #84]	; 0x54
80304d20:	e0823003 	add	r3, r2, r3
80304d24:	e5d33000 	ldrb	r3, [r3]
80304d28:	e1a06003 	mov	r6, r3
80304d2c:	e59d3064 	ldr	r3, [sp, #100]	; 0x64
80304d30:	e1a03203 	lsl	r3, r3, #4
80304d34:	e2833001 	add	r3, r3, #1
80304d38:	e59d2054 	ldr	r2, [sp, #84]	; 0x54
80304d3c:	e0823003 	add	r3, r2, r3
80304d40:	e5d33000 	ldrb	r3, [r3]
80304d44:	e1a05003 	mov	r5, r3
80304d48:	e59d3064 	ldr	r3, [sp, #100]	; 0x64
80304d4c:	e1a03203 	lsl	r3, r3, #4
80304d50:	e2833002 	add	r3, r3, #2
80304d54:	e59d2054 	ldr	r2, [sp, #84]	; 0x54
80304d58:	e0823003 	add	r3, r2, r3
80304d5c:	e5d33000 	ldrb	r3, [r3]
80304d60:	e1a0c003 	mov	ip, r3
80304d64:	e59d3064 	ldr	r3, [sp, #100]	; 0x64
80304d68:	e1a03203 	lsl	r3, r3, #4
80304d6c:	e2833003 	add	r3, r3, #3
80304d70:	e59d2054 	ldr	r2, [sp, #84]	; 0x54
80304d74:	e0823003 	add	r3, r2, r3
80304d78:	e5d33000 	ldrb	r3, [r3]
80304d7c:	e1a04003 	mov	r4, r3
80304d80:	e59d3064 	ldr	r3, [sp, #100]	; 0x64
80304d84:	e1a03203 	lsl	r3, r3, #4
80304d88:	e2833004 	add	r3, r3, #4
80304d8c:	e59d2054 	ldr	r2, [sp, #84]	; 0x54
80304d90:	e0823003 	add	r3, r2, r3
80304d94:	e5d33000 	ldrb	r3, [r3]
80304d98:	e58d3044 	str	r3, [sp, #68]	; 0x44
80304d9c:	e59d3064 	ldr	r3, [sp, #100]	; 0x64
80304da0:	e1a03203 	lsl	r3, r3, #4
80304da4:	e2833005 	add	r3, r3, #5
80304da8:	e59d2054 	ldr	r2, [sp, #84]	; 0x54
80304dac:	e0823003 	add	r3, r2, r3
80304db0:	e5d33000 	ldrb	r3, [r3]
80304db4:	e58d3040 	str	r3, [sp, #64]	; 0x40
80304db8:	e59d3064 	ldr	r3, [sp, #100]	; 0x64
80304dbc:	e1a03203 	lsl	r3, r3, #4
80304dc0:	e2833006 	add	r3, r3, #6
80304dc4:	e59d2054 	ldr	r2, [sp, #84]	; 0x54
80304dc8:	e0823003 	add	r3, r2, r3
80304dcc:	e5d33000 	ldrb	r3, [r3]
80304dd0:	e58d303c 	str	r3, [sp, #60]	; 0x3c
80304dd4:	e59d3064 	ldr	r3, [sp, #100]	; 0x64
80304dd8:	e1a03203 	lsl	r3, r3, #4
80304ddc:	e2833007 	add	r3, r3, #7
80304de0:	e59d2054 	ldr	r2, [sp, #84]	; 0x54
80304de4:	e0823003 	add	r3, r2, r3
80304de8:	e5d33000 	ldrb	r3, [r3]
80304dec:	e58d3038 	str	r3, [sp, #56]	; 0x38
80304df0:	e59d3064 	ldr	r3, [sp, #100]	; 0x64
80304df4:	e1a03203 	lsl	r3, r3, #4
80304df8:	e2833008 	add	r3, r3, #8
80304dfc:	e59d2054 	ldr	r2, [sp, #84]	; 0x54
80304e00:	e0823003 	add	r3, r2, r3
80304e04:	e5d33000 	ldrb	r3, [r3]
80304e08:	e1a0b003 	mov	fp, r3
80304e0c:	e59d3064 	ldr	r3, [sp, #100]	; 0x64
80304e10:	e1a03203 	lsl	r3, r3, #4
80304e14:	e2833009 	add	r3, r3, #9
80304e18:	e59d2054 	ldr	r2, [sp, #84]	; 0x54
80304e1c:	e0823003 	add	r3, r2, r3
80304e20:	e5d33000 	ldrb	r3, [r3]
80304e24:	e1a09003 	mov	r9, r3
80304e28:	e59d3064 	ldr	r3, [sp, #100]	; 0x64
80304e2c:	e1a03203 	lsl	r3, r3, #4
80304e30:	e283300a 	add	r3, r3, #10
80304e34:	e59d2054 	ldr	r2, [sp, #84]	; 0x54
80304e38:	e0823003 	add	r3, r2, r3
80304e3c:	e5d33000 	ldrb	r3, [r3]
80304e40:	e1a0a003 	mov	sl, r3
80304e44:	e59d3064 	ldr	r3, [sp, #100]	; 0x64
80304e48:	e1a03203 	lsl	r3, r3, #4
80304e4c:	e283300b 	add	r3, r3, #11
80304e50:	e59d2054 	ldr	r2, [sp, #84]	; 0x54
80304e54:	e0823003 	add	r3, r2, r3
80304e58:	e5d33000 	ldrb	r3, [r3]
80304e5c:	e1a08003 	mov	r8, r3
80304e60:	e59d3064 	ldr	r3, [sp, #100]	; 0x64
80304e64:	e1a03203 	lsl	r3, r3, #4
80304e68:	e283300c 	add	r3, r3, #12
80304e6c:	e59d2054 	ldr	r2, [sp, #84]	; 0x54
80304e70:	e0823003 	add	r3, r2, r3
80304e74:	e5d33000 	ldrb	r3, [r3]
80304e78:	e1a0e003 	mov	lr, r3
80304e7c:	e59d3064 	ldr	r3, [sp, #100]	; 0x64
80304e80:	e1a03203 	lsl	r3, r3, #4
80304e84:	e283200d 	add	r2, r3, #13
80304e88:	e59d3054 	ldr	r3, [sp, #84]	; 0x54
80304e8c:	e0833002 	add	r3, r3, r2
80304e90:	e5d33000 	ldrb	r3, [r3]
80304e94:	e1a00003 	mov	r0, r3
80304e98:	e59d3064 	ldr	r3, [sp, #100]	; 0x64
80304e9c:	e1a03203 	lsl	r3, r3, #4
80304ea0:	e283200e 	add	r2, r3, #14
80304ea4:	e59d3054 	ldr	r3, [sp, #84]	; 0x54
80304ea8:	e0833002 	add	r3, r3, r2
80304eac:	e5d33000 	ldrb	r3, [r3]
80304eb0:	e1a01003 	mov	r1, r3
80304eb4:	e59d3064 	ldr	r3, [sp, #100]	; 0x64
80304eb8:	e1a03203 	lsl	r3, r3, #4
80304ebc:	e283200f 	add	r2, r3, #15
80304ec0:	e59d3054 	ldr	r3, [sp, #84]	; 0x54
80304ec4:	e0833002 	add	r3, r3, r2
80304ec8:	e5d33000 	ldrb	r3, [r3]
80304ecc:	e58dc000 	str	ip, [sp]
80304ed0:	e58d4004 	str	r4, [sp, #4]
80304ed4:	e59d2044 	ldr	r2, [sp, #68]	; 0x44
80304ed8:	e58d2008 	str	r2, [sp, #8]
80304edc:	e59d2040 	ldr	r2, [sp, #64]	; 0x40
80304ee0:	e58d200c 	str	r2, [sp, #12]
80304ee4:	e59d203c 	ldr	r2, [sp, #60]	; 0x3c
80304ee8:	e58d2010 	str	r2, [sp, #16]
80304eec:	e59d2038 	ldr	r2, [sp, #56]	; 0x38
80304ef0:	e58d2014 	str	r2, [sp, #20]
80304ef4:	e58db018 	str	fp, [sp, #24]
80304ef8:	e58d901c 	str	r9, [sp, #28]
80304efc:	e58da020 	str	sl, [sp, #32]
80304f00:	e58d8024 	str	r8, [sp, #36]	; 0x24
80304f04:	e58de028 	str	lr, [sp, #40]	; 0x28
80304f08:	e58d002c 	str	r0, [sp, #44]	; 0x2c
80304f0c:	e58d1030 	str	r1, [sp, #48]	; 0x30
80304f10:	e58d3034 	str	r3, [sp, #52]	; 0x34
80304f14:	e30509f4 	movw	r0, #23028	; 0x59f4
80304f18:	e3480030 	movt	r0, #32816	; 0x8030
80304f1c:	e1a01007 	mov	r1, r7
80304f20:	e1a02006 	mov	r2, r6
80304f24:	e1a03005 	mov	r3, r5
80304f28:	ebffff43 	bl	80304c3c <serial_printf>
80304f2c:	e59d3064 	ldr	r3, [sp, #100]	; 0x64
80304f30:	e2833001 	add	r3, r3, #1
80304f34:	e58d3064 	str	r3, [sp, #100]	; 0x64
80304f38:	e59d2064 	ldr	r2, [sp, #100]	; 0x64
80304f3c:	e59d3060 	ldr	r3, [sp, #96]	; 0x60
80304f40:	e1520003 	cmp	r2, r3
80304f44:	baffff6d 	blt	80304d00 <memdump_32+0x7c>
80304f48:	e28dd06c 	add	sp, sp, #108	; 0x6c
80304f4c:	e8bd8ff0 	pop	{r4, r5, r6, r7, r8, r9, sl, fp, pc}

80304f50 <HelloWorld1>:
80304f50:	e52de004 	push	{lr}		; (str lr, [sp, #-4]!)
80304f54:	e24dd01c 	sub	sp, sp, #28
80304f58:	e58d0004 	str	r0, [sp, #4]
80304f5c:	e3a03000 	mov	r3, #0
80304f60:	e58d3014 	str	r3, [sp, #20]
80304f64:	e3a03000 	mov	r3, #0
80304f68:	e58d3010 	str	r3, [sp, #16]
80304f6c:	ebfff2f7 	bl	80301b50 <xTaskGetTickCount>
80304f70:	e1a03000 	mov	r3, r0
80304f74:	e58d300c 	str	r3, [sp, #12]
80304f78:	ebffecb2 	bl	80300248 <vPortEnterCritical>
80304f7c:	e3050a50 	movw	r0, #23120	; 0x5a50
80304f80:	e3480030 	movt	r0, #32816	; 0x8030
80304f84:	ebffff2c 	bl	80304c3c <serial_printf>
80304f88:	ebffecbb 	bl	8030027c <vPortExitCritical>
80304f8c:	e28d300c 	add	r3, sp, #12
80304f90:	e1a00003 	mov	r0, r3
80304f94:	e3a010fa 	mov	r1, #250	; 0xfa
80304f98:	ebfff07a 	bl	80301188 <vTaskDelayUntil>
80304f9c:	eafffff5 	b	80304f78 <HelloWorld1+0x28>

80304fa0 <HelloWorld2>:
80304fa0:	e52de004 	push	{lr}		; (str lr, [sp, #-4]!)
80304fa4:	e24dd01c 	sub	sp, sp, #28
80304fa8:	e58d0004 	str	r0, [sp, #4]
80304fac:	e3a03000 	mov	r3, #0
80304fb0:	e58d3014 	str	r3, [sp, #20]
80304fb4:	e3a03000 	mov	r3, #0
80304fb8:	e58d3010 	str	r3, [sp, #16]
80304fbc:	ebfff2e3 	bl	80301b50 <xTaskGetTickCount>
80304fc0:	e1a03000 	mov	r3, r0
80304fc4:	e58d300c 	str	r3, [sp, #12]
80304fc8:	ebffec9e 	bl	80300248 <vPortEnterCritical>
80304fcc:	e3a00f7d 	mov	r0, #500	; 0x1f4
80304fd0:	ebfff0b0 	bl	80301298 <vTaskDelay>
80304fd4:	e3050a60 	movw	r0, #23136	; 0x5a60
80304fd8:	e3480030 	movt	r0, #32816	; 0x8030
80304fdc:	ebffff16 	bl	80304c3c <serial_printf>
80304fe0:	ebffeca5 	bl	8030027c <vPortExitCritical>
80304fe4:	e28d300c 	add	r3, sp, #12
80304fe8:	e1a00003 	mov	r0, r3
80304fec:	e3a010fa 	mov	r1, #250	; 0xfa
80304ff0:	ebfff064 	bl	80301188 <vTaskDelayUntil>
80304ff4:	eafffff3 	b	80304fc8 <HelloWorld2+0x28>

80304ff8 <delay>:
80304ff8:	e24dd010 	sub	sp, sp, #16
80304ffc:	e58d0004 	str	r0, [sp, #4]
80305000:	e30b3be0 	movw	r3, #48096	; 0xbbe0
80305004:	e3483030 	movt	r3, #32816	; 0x8030
80305008:	e59d2004 	ldr	r2, [sp, #4]
8030500c:	e5832000 	str	r2, [r3]
80305010:	e3a03000 	mov	r3, #0
80305014:	e58d300c 	str	r3, [sp, #12]
80305018:	ea000011 	b	80305064 <delay+0x6c>
8030501c:	e30b3be0 	movw	r3, #48096	; 0xbbe0
80305020:	e3483030 	movt	r3, #32816	; 0x8030
80305024:	e5933000 	ldr	r3, [r3]
80305028:	e2832001 	add	r2, r3, #1
8030502c:	e30b3be0 	movw	r3, #48096	; 0xbbe0
80305030:	e3483030 	movt	r3, #32816	; 0x8030
80305034:	e5832000 	str	r2, [r3]
80305038:	e30b3be0 	movw	r3, #48096	; 0xbbe0
8030503c:	e3483030 	movt	r3, #32816	; 0x8030
80305040:	e5932000 	ldr	r2, [r3]
80305044:	e3053a8c 	movw	r3, #23180	; 0x5a8c
80305048:	e3483030 	movt	r3, #32816	; 0x8030
8030504c:	e5933000 	ldr	r3, [r3]
80305050:	e1520003 	cmp	r2, r3
80305054:	ca000009 	bgt	80305080 <delay+0x88>
80305058:	e59d300c 	ldr	r3, [sp, #12]
8030505c:	e2833001 	add	r3, r3, #1
80305060:	e58d300c 	str	r3, [sp, #12]
80305064:	e3053a8c 	movw	r3, #23180	; 0x5a8c
80305068:	e3483030 	movt	r3, #32816	; 0x8030
8030506c:	e5933000 	ldr	r3, [r3]
80305070:	e59d200c 	ldr	r2, [sp, #12]
80305074:	e1520003 	cmp	r2, r3
80305078:	baffffe7 	blt	8030501c <delay+0x24>
8030507c:	ea000000 	b	80305084 <delay+0x8c>
80305080:	e1a00000 	nop			; (mov r0, r0)
80305084:	e28dd010 	add	sp, sp, #16
80305088:	e12fff1e 	bx	lr

8030508c <vParTestSetLED>:
8030508c:	e24dd010 	sub	sp, sp, #16
80305090:	e58d0004 	str	r0, [sp, #4]
80305094:	e58d1000 	str	r1, [sp]
80305098:	e3a03000 	mov	r3, #0
8030509c:	e58d300c 	str	r3, [sp, #12]
803050a0:	e59d3004 	ldr	r3, [sp, #4]
803050a4:	e3530001 	cmp	r3, #1
803050a8:	8a000018 	bhi	80305110 <vParTestSetLED+0x84>
803050ac:	e59d3004 	ldr	r3, [sp, #4]
803050b0:	e3530000 	cmp	r3, #0
803050b4:	0a000002 	beq	803050c4 <vParTestSetLED+0x38>
803050b8:	e3530001 	cmp	r3, #1
803050bc:	0a000003 	beq	803050d0 <vParTestSetLED+0x44>
803050c0:	ea000005 	b	803050dc <vParTestSetLED+0x50>
803050c4:	e3a03602 	mov	r3, #2097152	; 0x200000
803050c8:	e58d300c 	str	r3, [sp, #12]
803050cc:	ea000003 	b	803050e0 <vParTestSetLED+0x54>
803050d0:	e3a03501 	mov	r3, #4194304	; 0x400000
803050d4:	e58d300c 	str	r3, [sp, #12]
803050d8:	ea000000 	b	803050e0 <vParTestSetLED+0x54>
803050dc:	e1a00000 	nop			; (mov r0, r0)
803050e0:	e59d3000 	ldr	r3, [sp]
803050e4:	e3530000 	cmp	r3, #0
803050e8:	0a000004 	beq	80305100 <vParTestSetLED+0x74>
803050ec:	e3063094 	movw	r3, #24724	; 0x6094
803050f0:	e3443905 	movt	r3, #18693	; 0x4905
803050f4:	e59d200c 	ldr	r2, [sp, #12]
803050f8:	e5832000 	str	r2, [r3]
803050fc:	ea000003 	b	80305110 <vParTestSetLED+0x84>
80305100:	e3063090 	movw	r3, #24720	; 0x6090
80305104:	e3443905 	movt	r3, #18693	; 0x4905
80305108:	e59d200c 	ldr	r2, [sp, #12]
8030510c:	e5832000 	str	r2, [r3]
80305110:	e28dd010 	add	sp, sp, #16
80305114:	e12fff1e 	bx	lr

80305118 <FlashLED1>:
80305118:	e52de004 	push	{lr}		; (str lr, [sp, #-4]!)
8030511c:	e24dd014 	sub	sp, sp, #20
80305120:	e58d0004 	str	r0, [sp, #4]
80305124:	e3a03000 	mov	r3, #0
80305128:	e58d300c 	str	r3, [sp, #12]
8030512c:	ebfff287 	bl	80301b50 <xTaskGetTickCount>
80305130:	e1a03000 	mov	r3, r0
80305134:	e58d3008 	str	r3, [sp, #8]
80305138:	ebffec42 	bl	80300248 <vPortEnterCritical>
8030513c:	e3a00000 	mov	r0, #0
80305140:	e3a01001 	mov	r1, #1
80305144:	ebffffd0 	bl	8030508c <vParTestSetLED>
80305148:	e3a00000 	mov	r0, #0
8030514c:	ebffffa9 	bl	80304ff8 <delay>
80305150:	e3a00000 	mov	r0, #0
80305154:	e3a01000 	mov	r1, #0
80305158:	ebffffcb 	bl	8030508c <vParTestSetLED>
8030515c:	e3a00e32 	mov	r0, #800	; 0x320
80305160:	ebffffa4 	bl	80304ff8 <delay>
80305164:	ebffec44 	bl	8030027c <vPortExitCritical>
80305168:	e28d3008 	add	r3, sp, #8
8030516c:	e1a00003 	mov	r0, r3
80305170:	e3a010fa 	mov	r1, #250	; 0xfa
80305174:	ebfff003 	bl	80301188 <vTaskDelayUntil>
80305178:	eaffffee 	b	80305138 <FlashLED1+0x20>

8030517c <FlashLED2>:
8030517c:	e52de004 	push	{lr}		; (str lr, [sp, #-4]!)
80305180:	e24dd014 	sub	sp, sp, #20
80305184:	e58d0004 	str	r0, [sp, #4]
80305188:	e3a03000 	mov	r3, #0
8030518c:	e58d300c 	str	r3, [sp, #12]
80305190:	ebfff26e 	bl	80301b50 <xTaskGetTickCount>
80305194:	e1a03000 	mov	r3, r0
80305198:	e58d3008 	str	r3, [sp, #8]
8030519c:	ebffec29 	bl	80300248 <vPortEnterCritical>
803051a0:	e3a00001 	mov	r0, #1
803051a4:	e3a01001 	mov	r1, #1
803051a8:	ebffffb7 	bl	8030508c <vParTestSetLED>
803051ac:	e3a00000 	mov	r0, #0
803051b0:	ebffff90 	bl	80304ff8 <delay>
803051b4:	e3a00001 	mov	r0, #1
803051b8:	e3a01000 	mov	r1, #0
803051bc:	ebffffb2 	bl	8030508c <vParTestSetLED>
803051c0:	e3a00e32 	mov	r0, #800	; 0x320
803051c4:	ebffff8b 	bl	80304ff8 <delay>
803051c8:	ebffec2b 	bl	8030027c <vPortExitCritical>
803051cc:	e28d3008 	add	r3, sp, #8
803051d0:	e1a00003 	mov	r0, r3
803051d4:	e3a010fa 	mov	r1, #250	; 0xfa
803051d8:	ebffefea 	bl	80301188 <vTaskDelayUntil>
803051dc:	eaffffee 	b	8030519c <FlashLED2+0x20>

803051e0 <start>:
803051e0:	e59f00f4 	ldr	r0, [pc, #244]	; 803052dc <endless_loop+0x18>
803051e4:	e321f0db 	msr	CPSR_c, #219	; 0xdb
803051e8:	e1a0d000 	mov	sp, r0
803051ec:	e2400004 	sub	r0, r0, #4
803051f0:	e321f0d7 	msr	CPSR_c, #215	; 0xd7
803051f4:	e1a0d000 	mov	sp, r0
803051f8:	e2400004 	sub	r0, r0, #4
803051fc:	e321f0d1 	msr	CPSR_c, #209	; 0xd1
80305200:	e1a0d000 	mov	sp, r0
80305204:	e2400004 	sub	r0, r0, #4
80305208:	e321f0d2 	msr	CPSR_c, #210	; 0xd2
8030520c:	e1a0d000 	mov	sp, r0
80305210:	e2400b01 	sub	r0, r0, #1024	; 0x400
80305214:	e321f0d3 	msr	CPSR_c, #211	; 0xd3
80305218:	e1a0d000 	mov	sp, r0
8030521c:	e2400b01 	sub	r0, r0, #1024	; 0x400
80305220:	e321f0df 	msr	CPSR_c, #223	; 0xdf
80305224:	e1a0d000 	mov	sp, r0
80305228:	e321f0d3 	msr	CPSR_c, #211	; 0xd3
8030522c:	e59f10b0 	ldr	r1, [pc, #176]	; 803052e4 <endless_loop+0x20>
80305230:	e59f00a8 	ldr	r0, [pc, #168]	; 803052e0 <endless_loop+0x1c>
80305234:	e5801000 	str	r1, [r0]
80305238:	e2800004 	add	r0, r0, #4
8030523c:	e5801000 	str	r1, [r0]
80305240:	e2800004 	add	r0, r0, #4
80305244:	e5801000 	str	r1, [r0]
80305248:	e2800004 	add	r0, r0, #4
8030524c:	e5801000 	str	r1, [r0]
80305250:	e2800004 	add	r0, r0, #4
80305254:	e5801000 	str	r1, [r0]
80305258:	e2800004 	add	r0, r0, #4
8030525c:	e5801000 	str	r1, [r0]
80305260:	e2800004 	add	r0, r0, #4
80305264:	e5801000 	str	r1, [r0]
80305268:	e3a01000 	mov	r1, #0
8030526c:	e1a0b001 	mov	fp, r1
80305270:	e1a07001 	mov	r7, r1
80305274:	e59f104c 	ldr	r1, [pc, #76]	; 803052c8 <endless_loop+0x4>
80305278:	e59f304c 	ldr	r3, [pc, #76]	; 803052cc <endless_loop+0x8>
8030527c:	e0533001 	subs	r3, r3, r1
80305280:	0a000003 	beq	80305294 <.end_clear_loop>
80305284:	e3a02000 	mov	r2, #0

80305288 <.clear_loop>:
80305288:	e4c12001 	strb	r2, [r1], #1
8030528c:	e2533001 	subs	r3, r3, #1
80305290:	cafffffc 	bgt	80305288 <.clear_loop>

80305294 <.end_clear_loop>:
80305294:	e59f1034 	ldr	r1, [pc, #52]	; 803052d0 <endless_loop+0xc>
80305298:	e59f2034 	ldr	r2, [pc, #52]	; 803052d4 <endless_loop+0x10>
8030529c:	e59f3034 	ldr	r3, [pc, #52]	; 803052d8 <endless_loop+0x14>
803052a0:	e0533001 	subs	r3, r3, r1
803052a4:	0a000003 	beq	803052b8 <.end_set_loop>

803052a8 <.set_loop>:
803052a8:	e4d24001 	ldrb	r4, [r2], #1
803052ac:	e4c14001 	strb	r4, [r1], #1
803052b0:	e2533001 	subs	r3, r3, #1
803052b4:	cafffffb 	bgt	803052a8 <.set_loop>

803052b8 <.end_set_loop>:
803052b8:	e3a00000 	mov	r0, #0
803052bc:	e3a01000 	mov	r1, #0
803052c0:	ebffec06 	bl	803002e0 <main>

803052c4 <endless_loop>:
803052c4:	eafffffe 	b	803052c4 <endless_loop>
803052c8:	80305a90 	.word	0x80305a90
803052cc:	8030bbe4 	.word	0x8030bbe4
803052d0:	80305a7c 	.word	0x80305a7c
803052d4:	80305a7c 	.word	0x80305a7c
803052d8:	80305a90 	.word	0x80305a90
803052dc:	8080fffc 	.word	0x8080fffc
803052e0:	4020ffc8 	.word	0x4020ffc8
803052e4:	e59ff014 	.word	0xe59ff014

803052e8 <__aeabi_uidiv>:
803052e8:	e2512001 	subs	r2, r1, #1
803052ec:	012fff1e 	bxeq	lr
803052f0:	3a000036 	bcc	803053d0 <__aeabi_uidiv+0xe8>
803052f4:	e1500001 	cmp	r0, r1
803052f8:	9a000022 	bls	80305388 <__aeabi_uidiv+0xa0>
803052fc:	e1110002 	tst	r1, r2
80305300:	0a000023 	beq	80305394 <__aeabi_uidiv+0xac>
80305304:	e311020e 	tst	r1, #-536870912	; 0xe0000000
80305308:	01a01181 	lsleq	r1, r1, #3
8030530c:	03a03008 	moveq	r3, #8
80305310:	13a03001 	movne	r3, #1
80305314:	e3510201 	cmp	r1, #268435456	; 0x10000000
80305318:	31510000 	cmpcc	r1, r0
8030531c:	31a01201 	lslcc	r1, r1, #4
80305320:	31a03203 	lslcc	r3, r3, #4
80305324:	3afffffa 	bcc	80305314 <__aeabi_uidiv+0x2c>
80305328:	e3510102 	cmp	r1, #-2147483648	; 0x80000000
8030532c:	31510000 	cmpcc	r1, r0
80305330:	31a01081 	lslcc	r1, r1, #1
80305334:	31a03083 	lslcc	r3, r3, #1
80305338:	3afffffa 	bcc	80305328 <__aeabi_uidiv+0x40>
8030533c:	e3a02000 	mov	r2, #0
80305340:	e1500001 	cmp	r0, r1
80305344:	20400001 	subcs	r0, r0, r1
80305348:	21822003 	orrcs	r2, r2, r3
8030534c:	e15000a1 	cmp	r0, r1, lsr #1
80305350:	204000a1 	subcs	r0, r0, r1, lsr #1
80305354:	218220a3 	orrcs	r2, r2, r3, lsr #1
80305358:	e1500121 	cmp	r0, r1, lsr #2
8030535c:	20400121 	subcs	r0, r0, r1, lsr #2
80305360:	21822123 	orrcs	r2, r2, r3, lsr #2
80305364:	e15001a1 	cmp	r0, r1, lsr #3
80305368:	204001a1 	subcs	r0, r0, r1, lsr #3
8030536c:	218221a3 	orrcs	r2, r2, r3, lsr #3
80305370:	e3500000 	cmp	r0, #0
80305374:	11b03223 	lsrsne	r3, r3, #4
80305378:	11a01221 	lsrne	r1, r1, #4
8030537c:	1affffef 	bne	80305340 <__aeabi_uidiv+0x58>
80305380:	e1a00002 	mov	r0, r2
80305384:	e12fff1e 	bx	lr
80305388:	03a00001 	moveq	r0, #1
8030538c:	13a00000 	movne	r0, #0
80305390:	e12fff1e 	bx	lr
80305394:	e3510801 	cmp	r1, #65536	; 0x10000
80305398:	21a01821 	lsrcs	r1, r1, #16
8030539c:	23a02010 	movcs	r2, #16
803053a0:	33a02000 	movcc	r2, #0
803053a4:	e3510c01 	cmp	r1, #256	; 0x100
803053a8:	21a01421 	lsrcs	r1, r1, #8
803053ac:	22822008 	addcs	r2, r2, #8
803053b0:	e3510010 	cmp	r1, #16
803053b4:	21a01221 	lsrcs	r1, r1, #4
803053b8:	22822004 	addcs	r2, r2, #4
803053bc:	e3510004 	cmp	r1, #4
803053c0:	82822003 	addhi	r2, r2, #3
803053c4:	908220a1 	addls	r2, r2, r1, lsr #1
803053c8:	e1a00230 	lsr	r0, r0, r2
803053cc:	e12fff1e 	bx	lr
803053d0:	e3500000 	cmp	r0, #0
803053d4:	13e00000 	mvnne	r0, #0
803053d8:	ea000007 	b	803053fc <__aeabi_idiv0>

803053dc <__aeabi_uidivmod>:
803053dc:	e3510000 	cmp	r1, #0
803053e0:	0afffffa 	beq	803053d0 <__aeabi_uidiv+0xe8>
803053e4:	e92d4003 	push	{r0, r1, lr}
803053e8:	ebffffbe 	bl	803052e8 <__aeabi_uidiv>
803053ec:	e8bd4006 	pop	{r1, r2, lr}
803053f0:	e0030092 	mul	r3, r2, r0
803053f4:	e0411003 	sub	r1, r1, r3
803053f8:	e12fff1e 	bx	lr

803053fc <__aeabi_idiv0>:
803053fc:	e12fff1e 	bx	lr

80305400 <memcpy>:
80305400:	e3520003 	cmp	r2, #3
80305404:	e92d01f0 	push	{r4, r5, r6, r7, r8}
80305408:	8a000009 	bhi	80305434 <memcpy+0x34>
8030540c:	e3520000 	cmp	r2, #0
80305410:	0a000005 	beq	8030542c <memcpy+0x2c>
80305414:	e3a03000 	mov	r3, #0
80305418:	e7d1c003 	ldrb	ip, [r1, r3]
8030541c:	e7c0c003 	strb	ip, [r0, r3]
80305420:	e2833001 	add	r3, r3, #1
80305424:	e1530002 	cmp	r3, r2
80305428:	1afffffa 	bne	80305418 <memcpy+0x18>
8030542c:	e8bd01f0 	pop	{r4, r5, r6, r7, r8}
80305430:	e12fff1e 	bx	lr
80305434:	e3100003 	tst	r0, #3
80305438:	e0802002 	add	r2, r0, r2
8030543c:	0a00000b 	beq	80305470 <memcpy+0x70>
80305440:	e280c001 	add	ip, r0, #1
80305444:	e2814001 	add	r4, r1, #1
80305448:	e20c3003 	and	r3, ip, #3
8030544c:	e5545001 	ldrb	r5, [r4, #-1]
80305450:	e3530000 	cmp	r3, #0
80305454:	e1a01004 	mov	r1, r4
80305458:	e1a0300c 	mov	r3, ip
8030545c:	e54c5001 	strb	r5, [ip, #-1]
80305460:	e2844001 	add	r4, r4, #1
80305464:	e28cc001 	add	ip, ip, #1
80305468:	1afffff6 	bne	80305448 <memcpy+0x48>
8030546c:	ea000000 	b	80305474 <memcpy+0x74>
80305470:	e1a03000 	mov	r3, r0
80305474:	e211c003 	ands	ip, r1, #3
80305478:	1a00004f 	bne	803055bc <memcpy+0x1bc>
8030547c:	e063c002 	rsb	ip, r3, r2
80305480:	e35c003f 	cmp	ip, #63	; 0x3f
80305484:	da000024 	ble	8030551c <memcpy+0x11c>
80305488:	e591c000 	ldr	ip, [r1]
8030548c:	e583c000 	str	ip, [r3]
80305490:	e591c004 	ldr	ip, [r1, #4]
80305494:	e583c004 	str	ip, [r3, #4]
80305498:	e591c008 	ldr	ip, [r1, #8]
8030549c:	e583c008 	str	ip, [r3, #8]
803054a0:	e591c00c 	ldr	ip, [r1, #12]
803054a4:	e583c00c 	str	ip, [r3, #12]
803054a8:	e591c010 	ldr	ip, [r1, #16]
803054ac:	e583c010 	str	ip, [r3, #16]
803054b0:	e591c014 	ldr	ip, [r1, #20]
803054b4:	e583c014 	str	ip, [r3, #20]
803054b8:	e591c018 	ldr	ip, [r1, #24]
803054bc:	e583c018 	str	ip, [r3, #24]
803054c0:	e591c01c 	ldr	ip, [r1, #28]
803054c4:	e583c01c 	str	ip, [r3, #28]
803054c8:	e591c020 	ldr	ip, [r1, #32]
803054cc:	e583c020 	str	ip, [r3, #32]
803054d0:	e591c024 	ldr	ip, [r1, #36]	; 0x24
803054d4:	e583c024 	str	ip, [r3, #36]	; 0x24
803054d8:	e591c028 	ldr	ip, [r1, #40]	; 0x28
803054dc:	e583c028 	str	ip, [r3, #40]	; 0x28
803054e0:	e591c02c 	ldr	ip, [r1, #44]	; 0x2c
803054e4:	e583c02c 	str	ip, [r3, #44]	; 0x2c
803054e8:	e591c030 	ldr	ip, [r1, #48]	; 0x30
803054ec:	e583c030 	str	ip, [r3, #48]	; 0x30
803054f0:	e591c034 	ldr	ip, [r1, #52]	; 0x34
803054f4:	e583c034 	str	ip, [r3, #52]	; 0x34
803054f8:	e591c038 	ldr	ip, [r1, #56]	; 0x38
803054fc:	e583c038 	str	ip, [r3, #56]	; 0x38
80305500:	e591c03c 	ldr	ip, [r1, #60]	; 0x3c
80305504:	e2833040 	add	r3, r3, #64	; 0x40
80305508:	e503c004 	str	ip, [r3, #-4]
8030550c:	e063c002 	rsb	ip, r3, r2
80305510:	e35c003f 	cmp	ip, #63	; 0x3f
80305514:	e2811040 	add	r1, r1, #64	; 0x40
80305518:	caffffda 	bgt	80305488 <memcpy+0x88>
8030551c:	e35c000f 	cmp	ip, #15
80305520:	da00000c 	ble	80305558 <memcpy+0x158>
80305524:	e591c000 	ldr	ip, [r1]
80305528:	e583c000 	str	ip, [r3]
8030552c:	e591c004 	ldr	ip, [r1, #4]
80305530:	e583c004 	str	ip, [r3, #4]
80305534:	e591c008 	ldr	ip, [r1, #8]
80305538:	e583c008 	str	ip, [r3, #8]
8030553c:	e591c00c 	ldr	ip, [r1, #12]
80305540:	e2833010 	add	r3, r3, #16
80305544:	e503c004 	str	ip, [r3, #-4]
80305548:	e063c002 	rsb	ip, r3, r2
8030554c:	e35c000f 	cmp	ip, #15
80305550:	e2811010 	add	r1, r1, #16
80305554:	cafffff2 	bgt	80305524 <memcpy+0x124>
80305558:	e35c0003 	cmp	ip, #3
8030555c:	da00000a 	ble	8030558c <memcpy+0x18c>
80305560:	e283c004 	add	ip, r3, #4
80305564:	e2814004 	add	r4, r1, #4
80305568:	e06c3002 	rsb	r3, ip, r2
8030556c:	e5145004 	ldr	r5, [r4, #-4]
80305570:	e3530003 	cmp	r3, #3
80305574:	e1a01004 	mov	r1, r4
80305578:	e1a0300c 	mov	r3, ip
8030557c:	e50c5004 	str	r5, [ip, #-4]
80305580:	e2844004 	add	r4, r4, #4
80305584:	e28cc004 	add	ip, ip, #4
80305588:	cafffff6 	bgt	80305568 <memcpy+0x168>
8030558c:	e1520003 	cmp	r2, r3
80305590:	82833001 	addhi	r3, r3, #1
80305594:	82811001 	addhi	r1, r1, #1
80305598:	82822001 	addhi	r2, r2, #1
8030559c:	9affffa2 	bls	8030542c <memcpy+0x2c>
803055a0:	e551c001 	ldrb	ip, [r1, #-1]
803055a4:	e2833001 	add	r3, r3, #1
803055a8:	e1530002 	cmp	r3, r2
803055ac:	e543c002 	strb	ip, [r3, #-2]
803055b0:	e2811001 	add	r1, r1, #1
803055b4:	1afffff9 	bne	803055a0 <memcpy+0x1a0>
803055b8:	eaffff9b 	b	8030542c <memcpy+0x2c>
803055bc:	e0635002 	rsb	r5, r3, r2
803055c0:	e06c4001 	rsb	r4, ip, r1
803055c4:	e3550003 	cmp	r5, #3
803055c8:	e5945000 	ldr	r5, [r4]
803055cc:	daffffee 	ble	8030558c <memcpy+0x18c>
803055d0:	e26c6004 	rsb	r6, ip, #4
803055d4:	e1a0718c 	lsl	r7, ip, #3
803055d8:	e1a06186 	lsl	r6, r6, #3
803055dc:	e283c004 	add	ip, r3, #4
803055e0:	e1a08735 	lsr	r8, r5, r7
803055e4:	e5b45004 	ldr	r5, [r4, #4]!
803055e8:	e1888615 	orr	r8, r8, r5, lsl r6
803055ec:	e06c3002 	rsb	r3, ip, r2
803055f0:	e3530003 	cmp	r3, #3
803055f4:	e50c8004 	str	r8, [ip, #-4]
803055f8:	e1a0300c 	mov	r3, ip
803055fc:	e2811004 	add	r1, r1, #4
80305600:	e28cc004 	add	ip, ip, #4
80305604:	cafffff5 	bgt	803055e0 <memcpy+0x1e0>
80305608:	eaffffdf 	b	8030558c <memcpy+0x18c>

8030560c <memset>:
8030560c:	e3520003 	cmp	r2, #3
80305610:	e52d4004 	push	{r4}		; (str r4, [sp, #-4]!)
80305614:	e20110ff 	and	r1, r1, #255	; 0xff
80305618:	8a000008 	bhi	80305640 <memset+0x34>
8030561c:	e3520000 	cmp	r2, #0
80305620:	0a000004 	beq	80305638 <memset+0x2c>
80305624:	e1a03000 	mov	r3, r0
80305628:	e0822000 	add	r2, r2, r0
8030562c:	e4c31001 	strb	r1, [r3], #1
80305630:	e1530002 	cmp	r3, r2
80305634:	1afffffc 	bne	8030562c <memset+0x20>
80305638:	e8bd0010 	ldmfd	sp!, {r4}
8030563c:	e12fff1e 	bx	lr
80305640:	e3100003 	tst	r0, #3
80305644:	e0802002 	add	r2, r0, r2
80305648:	0a000007 	beq	8030566c <memset+0x60>
8030564c:	e280c001 	add	ip, r0, #1
80305650:	e20c3003 	and	r3, ip, #3
80305654:	e3530000 	cmp	r3, #0
80305658:	e54c1001 	strb	r1, [ip, #-1]
8030565c:	e1a0300c 	mov	r3, ip
80305660:	e28cc001 	add	ip, ip, #1
80305664:	1afffff9 	bne	80305650 <memset+0x44>
80305668:	ea000000 	b	80305670 <memset+0x64>
8030566c:	e1a03000 	mov	r3, r0
80305670:	e0634002 	rsb	r4, r3, r2
80305674:	e081c401 	add	ip, r1, r1, lsl #8
80305678:	e354003f 	cmp	r4, #63	; 0x3f
8030567c:	e08cc80c 	add	ip, ip, ip, lsl #16
80305680:	da00001a 	ble	803056f0 <memset+0xe4>
80305684:	e583c000 	str	ip, [r3]
80305688:	e583c004 	str	ip, [r3, #4]
8030568c:	e583c008 	str	ip, [r3, #8]
80305690:	e583c00c 	str	ip, [r3, #12]
80305694:	e583c010 	str	ip, [r3, #16]
80305698:	e583c014 	str	ip, [r3, #20]
8030569c:	e583c018 	str	ip, [r3, #24]
803056a0:	e583c01c 	str	ip, [r3, #28]
803056a4:	e583c020 	str	ip, [r3, #32]
803056a8:	e583c024 	str	ip, [r3, #36]	; 0x24
803056ac:	e583c028 	str	ip, [r3, #40]	; 0x28
803056b0:	e583c02c 	str	ip, [r3, #44]	; 0x2c
803056b4:	e583c030 	str	ip, [r3, #48]	; 0x30
803056b8:	e583c034 	str	ip, [r3, #52]	; 0x34
803056bc:	e583c038 	str	ip, [r3, #56]	; 0x38
803056c0:	e583c03c 	str	ip, [r3, #60]	; 0x3c
803056c4:	e2833040 	add	r3, r3, #64	; 0x40
803056c8:	e0634002 	rsb	r4, r3, r2
803056cc:	e354003f 	cmp	r4, #63	; 0x3f
803056d0:	caffffeb 	bgt	80305684 <memset+0x78>
803056d4:	ea000005 	b	803056f0 <memset+0xe4>
803056d8:	e583c000 	str	ip, [r3]
803056dc:	e583c004 	str	ip, [r3, #4]
803056e0:	e583c008 	str	ip, [r3, #8]
803056e4:	e583c00c 	str	ip, [r3, #12]
803056e8:	e2833010 	add	r3, r3, #16
803056ec:	e0634002 	rsb	r4, r3, r2
803056f0:	e354000f 	cmp	r4, #15
803056f4:	cafffff7 	bgt	803056d8 <memset+0xcc>
803056f8:	e3540003 	cmp	r4, #3
803056fc:	da000006 	ble	8030571c <memset+0x110>
80305700:	e2834004 	add	r4, r3, #4
80305704:	e0643002 	rsb	r3, r4, r2
80305708:	e3530003 	cmp	r3, #3
8030570c:	e504c004 	str	ip, [r4, #-4]
80305710:	e1a03004 	mov	r3, r4
80305714:	e2844004 	add	r4, r4, #4
80305718:	cafffff9 	bgt	80305704 <memset+0xf8>
8030571c:	e1520003 	cmp	r2, r3
80305720:	9affffc4 	bls	80305638 <memset+0x2c>
80305724:	e2833001 	add	r3, r3, #1
80305728:	e2822001 	add	r2, r2, #1
8030572c:	e5431001 	strb	r1, [r3, #-1]
80305730:	e2833001 	add	r3, r3, #1
80305734:	e1530002 	cmp	r3, r2
80305738:	1afffffb 	bne	8030572c <memset+0x120>
8030573c:	eaffffbd 	b	80305638 <memset+0x2c>

80305740 <strncpy>:
80305740:	e1813000 	orr	r3, r1, r0
80305744:	e3130003 	tst	r3, #3
80305748:	e92d0070 	push	{r4, r5, r6}
8030574c:	e1a03000 	mov	r3, r0
80305750:	1a000001 	bne	8030575c <strncpy+0x1c>
80305754:	e3520003 	cmp	r2, #3
80305758:	8a000018 	bhi	803057c0 <strncpy+0x80>
8030575c:	e3520000 	cmp	r2, #0
80305760:	0a000014 	beq	803057b8 <strncpy+0x78>
80305764:	e5d1c000 	ldrb	ip, [r1]
80305768:	e4c3c001 	strb	ip, [r3], #1
8030576c:	e35c0000 	cmp	ip, #0
80305770:	e2422001 	sub	r2, r2, #1
80305774:	11a0c003 	movne	ip, r3
80305778:	0a000007 	beq	8030579c <strncpy+0x5c>
8030577c:	e3520000 	cmp	r2, #0
80305780:	0a00000c 	beq	803057b8 <strncpy+0x78>
80305784:	e5f13001 	ldrb	r3, [r1, #1]!
80305788:	e4cc3001 	strb	r3, [ip], #1
8030578c:	e3530000 	cmp	r3, #0
80305790:	e2422001 	sub	r2, r2, #1
80305794:	e1a0300c 	mov	r3, ip
80305798:	1afffff7 	bne	8030577c <strncpy+0x3c>
8030579c:	e3520000 	cmp	r2, #0
803057a0:	10832002 	addne	r2, r3, r2
803057a4:	13a01000 	movne	r1, #0
803057a8:	0a000002 	beq	803057b8 <strncpy+0x78>
803057ac:	e4c31001 	strb	r1, [r3], #1
803057b0:	e1530002 	cmp	r3, r2
803057b4:	1afffffc 	bne	803057ac <strncpy+0x6c>
803057b8:	e8bd0070 	pop	{r4, r5, r6}
803057bc:	e12fff1e 	bx	lr
803057c0:	e1a06001 	mov	r6, r1
803057c4:	e59f4034 	ldr	r4, [pc, #52]	; 80305800 <strncpy+0xc0>
803057c8:	e4915004 	ldr	r5, [r1], #4
803057cc:	e59fc030 	ldr	ip, [pc, #48]	; 80305804 <strncpy+0xc4>
803057d0:	e0854004 	add	r4, r5, r4
803057d4:	e1c44005 	bic	r4, r4, r5
803057d8:	e004c00c 	and	ip, r4, ip
803057dc:	e35c0000 	cmp	ip, #0
803057e0:	1a000004 	bne	803057f8 <strncpy+0xb8>
803057e4:	e2422004 	sub	r2, r2, #4
803057e8:	e3520003 	cmp	r2, #3
803057ec:	e4835004 	str	r5, [r3], #4
803057f0:	8afffff2 	bhi	803057c0 <strncpy+0x80>
803057f4:	eaffffd8 	b	8030575c <strncpy+0x1c>
803057f8:	e1a01006 	mov	r1, r6
803057fc:	eaffffd6 	b	8030575c <strncpy+0x1c>
80305800:	fefefeff 	.word	0xfefefeff
80305804:	80808080 	.word	0x80808080
80305808:	206e490a 	.word	0x206e490a
8030580c:	6e69614d 	.word	0x6e69614d
80305810:	6c70202c 	.word	0x6c70202c
80305814:	65736165 	.word	0x65736165
80305818:	65727020 	.word	0x65727020
8030581c:	61207373 	.word	0x61207373
80305820:	79656b20 	.word	0x79656b20
80305824:	0000000a 	.word	0x0000000a
80305828:	72756f59 	.word	0x72756f59
8030582c:	706e6920 	.word	0x706e6920
80305830:	25207475 	.word	0x25207475
80305834:	00000a63 	.word	0x00000a63
80305838:	6c6c6548 	.word	0x6c6c6548
8030583c:	726f576f 	.word	0x726f576f
80305840:	0031646c 	.word	0x0031646c
80305844:	6c6c6548 	.word	0x6c6c6548
80305848:	6f77206f 	.word	0x6f77206f
8030584c:	20646c72 	.word	0x20646c72
80305850:	72632031 	.word	0x72632031
80305854:	69746165 	.word	0x69746165
80305858:	66206e6f 	.word	0x66206e6f
8030585c:	656c6961 	.word	0x656c6961
80305860:	00000064 	.word	0x00000064
80305864:	6c6c6548 	.word	0x6c6c6548
80305868:	726f576f 	.word	0x726f576f
8030586c:	0032646c 	.word	0x0032646c
80305870:	6c6c6548 	.word	0x6c6c6548
80305874:	6f77206f 	.word	0x6f77206f
80305878:	20646c72 	.word	0x20646c72
8030587c:	72632032 	.word	0x72632032
80305880:	69746165 	.word	0x69746165
80305884:	66206e6f 	.word	0x66206e6f
80305888:	656c6961 	.word	0x656c6961
8030588c:	00000064 	.word	0x00000064
80305890:	73616c46 	.word	0x73616c46
80305894:	44454c68 	.word	0x44454c68
80305898:	00000031 	.word	0x00000031
8030589c:	73616c46 	.word	0x73616c46
803058a0:	454c2068 	.word	0x454c2068
803058a4:	20312044 	.word	0x20312044
803058a8:	61657263 	.word	0x61657263
803058ac:	6e6f6974 	.word	0x6e6f6974
803058b0:	69616620 	.word	0x69616620
803058b4:	0064656c 	.word	0x0064656c
803058b8:	73616c46 	.word	0x73616c46
803058bc:	44454c68 	.word	0x44454c68
803058c0:	00000032 	.word	0x00000032
803058c4:	73616c46 	.word	0x73616c46
803058c8:	454c2068 	.word	0x454c2068
803058cc:	20322044 	.word	0x20322044
803058d0:	61657263 	.word	0x61657263
803058d4:	6e6f6974 	.word	0x6e6f6974
803058d8:	69616620 	.word	0x69616620
803058dc:	0064656c 	.word	0x0064656c
803058e0:	72617453 	.word	0x72617453
803058e4:	72462074 	.word	0x72462074
803058e8:	54526565 	.word	0x54526565
803058ec:	2e20534f 	.word	0x2e20534f
803058f0:	000a2e2e 	.word	0x000a2e2e
803058f4:	20726d54 	.word	0x20726d54
803058f8:	00637653 	.word	0x00637653
803058fc:	454c4449 	.word	0x454c4449
80305900:	00000000 	.word	0x00000000

80305904 <heapSTRUCT_SIZE>:
80305904:	00000010 726f5078 61745374 63537472     ....xPortStartSc
80305914:	75646568 3a72656c 74657320 74207075     heduler: setup t
80305924:	72656d69 00000a2e 726f5078 61745374     imer....xPortSta
80305934:	63537472 75646568 3a72656c 61747320     rtScheduler: sta
80305944:	66207472 74737269 73617420 000a2e6b     rt first task...
80305954:	33323130 37363534 62613938 66656463     0123456789abcdef
80305964:	6a696867 6e6d6c6b 7271706f 76757473     ghijklmnopqrstuv
80305974:	7a797877 00000000 33323130 37363534     wxyz....01234567
80305984:	42413938 46454443 4a494847 4e4d4c4b     89ABCDEFGHIJKLMN
80305994:	5251504f 56555453 5a595857 00000000     OPQRSTUVWXYZ....
803059a4:	4c554e3c 00003e4c 706d7564 6d656d20     <NULL>..dump mem
803059b4:	2079726f 30207461 38302578 74202c78     ory at 0x%08x, t
803059c4:	6c61746f 2520796c 79622064 73286574     otally %d byte(s
803059d4:	77202c29 20687469 7366666f 6f207465     ), with offset o
803059e4:	6c252066 79622075 73286574 00000a29     f %lu byte(s)...
803059f4:	30257830 093a7838 78323025 32302520     0x%08x:.%02x %02
80305a04:	30252078 25207832 09783230 78323025     x %02x %02x.%02x
80305a14:	32302520 30252078 25207832 09783230      %02x %02x %02x.
80305a24:	78323025 32302520 30252078 25207832     %02x %02x %02x %
80305a34:	09783230 78323025 32302520 30252078     02x.%02x %02x %0
80305a44:	25207832 0a783230 00000000 6c6c6548     2x %02x.....Hell
80305a54:	6f77206f 20646c72 000a2031 73615476     o world 1 ..vTas
80305a64:	6c65446b 48207961 6f6c6c65 726f7720     kDelay Hello wor
80305a74:	3220646c 00000a20                       ld 2 ...
